S'3.2'
p1
.S'LALR'
p1
.S'\x94\x87\xa3%\xe2\xcb\xfa\x9a\x84M0\x7f\xa1\xbf[\x0f'
p1
.(dp1
I0
(dp2
S'MAINTAINER_ID'
p3
I26
sS'PLATFORMS_ID'
p4
I3
sS'FLAG_ID'
p5
I11
sS'SUMMARY_ID'
p6
I14
sS'URL_ID'
p7
I13
sS'LIBRARY_ID'
p8
I27
sS'NEWLINE'
p9
I18
sS'PATH_ID'
p10
I45
sS'AUTHOR_ID'
p11
I21
sS'EXECUTABLE_ID'
p12
I22
sS'HOOK_FILE_ID'
p13
I25
sS'$end'
p14
I-13
sS'EXTRA_SOURCES_ID'
p15
I7
sS'DATAFILES_ID'
p16
I30
sS'DOWNLOAD_URL_ID'
p17
I33
sS'LICENSE_ID'
p18
I29
sS'MAINTAINER_EMAIL_ID'
p19
I40
sS'AUTHOR_EMAIL_ID'
p20
I53
sS'AND'
p21
I24
sS'DESCRIPTION_ID'
p22
I46
sS'VERSION_ID'
p23
I8
sS'CLASSIFIERS_ID'
p24
I50
sS'NAME_ID'
p25
I52
ssI1
(dp26
g3
I-24
sg4
I-24
sg5
I-24
sg6
I-24
sg7
I-24
sg8
I-24
sg10
I-24
sg11
I-24
sg12
I-24
sg13
I-24
sg14
I-24
sg15
I-24
sg16
I-24
sg17
I-24
sg18
I-24
sg19
I-24
sg20
I-24
sg21
I-24
sg22
I-24
sg23
I-24
sg24
I-24
sg25
I-24
ssI2
(dp27
g3
I-59
sg4
I-59
sg5
I-59
sg6
I-59
sg7
I-59
sg8
I-59
sg10
I-59
sg11
I-59
sg12
I-59
sg13
I-59
sg14
I-59
sg15
I-59
sg16
I-59
sg17
I-59
sg18
I-59
sg19
I-59
sg20
I-59
sg21
I-59
sS'INDENT'
p28
I54
sg22
I-59
sg23
I-59
sg24
I-59
sg25
I-59
ssI3
(dp29
S'COLON'
p30
I55
ssI4
(dp31
S'INDENT'
p32
I56
ssI5
(dp33
g3
I-6
sg4
I-6
sg5
I-6
sg6
I-6
sg7
I-6
sg8
I-6
sg10
I-6
sg11
I-6
sg12
I-6
sg13
I-6
sg14
I-6
sg15
I-6
sg16
I-6
sg17
I-6
sg18
I-6
sg19
I-6
sg20
I-6
sg21
I-6
sg22
I-6
sg23
I-6
sg24
I-6
sg25
I-6
ssI6
(dp34
g3
I-21
sg4
I-21
sg5
I-21
sg6
I-21
sg7
I-21
sg8
I-21
sg10
I-21
sg11
I-21
sg12
I-21
sg13
I-21
sg14
I-21
sg15
I-21
sg16
I-21
sg17
I-21
sg18
I-21
sg19
I-21
sg20
I-21
sg21
I-21
sg22
I-21
sg23
I-21
sg24
I-21
sg25
I-21
ssI7
(dp35
S'COLON'
p36
I57
ssI8
(dp37
S'COLON'
p38
I58
ssI9
(dp39
g3
I-18
sg4
I-18
sg5
I-18
sg6
I-18
sg7
I-18
sg8
I-18
sg10
I-18
sg11
I-18
sg12
I-18
sg13
I-18
sg14
I-18
sg15
I-18
sg16
I-18
sg17
I-18
sg18
I-18
sg19
I-18
sg20
I-18
sg21
I-18
sg22
I-18
sg23
I-18
sg24
I-18
sg25
I-18
ssI10
(dp40
g3
I-26
sg4
I-26
sg5
I-26
sg6
I-26
sg7
I-26
sg8
I-26
sg10
I-26
sg11
I-26
sg12
I-26
sg13
I-26
sg14
I-26
sg15
I-26
sg16
I-26
sg17
I-26
sg18
I-26
sg19
I-26
sg20
I-26
sg21
I-26
sg22
I-26
sg23
I-26
sg24
I-26
sg25
I-26
ssI11
(dp41
S'COLON'
p42
I59
ssI12
(dp43
g3
I-11
sg4
I-11
sg5
I-11
sg6
I-11
sg7
I-11
sg8
I-11
sg10
I-11
sg11
I-11
sg12
I-11
sg13
I-11
sg14
I-11
sg15
I-11
sg16
I-11
sg17
I-11
sg18
I-11
sg19
I-11
sg20
I-11
sg21
I-11
sg22
I-11
sg23
I-11
sg24
I-11
sg25
I-11
ssI13
(dp44
S'COLON'
p45
I60
ssI14
(dp46
S'COLON'
p47
I61
ssI15
(dp48
S'LPAR'
p49
I62
sS'WORD'
p50
I68
sS'GREATER'
p51
I76
sS'LESS'
p52
I63
sS'NEWLINE'
p53
I69
sS'EQUAL'
p54
I64
sS'RPAR'
p55
I65
sS'COMMA'
p56
I78
sS'SLASH'
p57
I73
sS'SHARP'
p58
I71
sS'COLON'
p59
I70
sS'WS'
p60
I67
ssI16
(dp61
S'INDENT'
p62
I79
ssI17
(dp63
S'INDENT'
p64
I80
ssI18
(dp65
g3
I-4
sg4
I-4
sg5
I-4
sg6
I-4
sg7
I-4
sg8
I-4
sg10
I-4
sg11
I-4
sg12
I-4
sg13
I-4
sg14
I-4
sg15
I-4
sg16
I-4
sg17
I-4
sg18
I-4
sg19
I-4
sg20
I-4
sg21
I-4
sg22
I-4
sg23
I-4
sg24
I-4
sg25
I-4
ssI19
(dp66
g3
I-10
sg4
I-10
sg5
I-10
sg6
I-10
sg7
I-10
sg8
I-10
sg10
I-10
sg11
I-10
sg12
I-10
sg13
I-10
sg14
I-10
sg15
I-10
sg16
I-10
sg17
I-10
sg18
I-10
sg19
I-10
sg20
I-10
sg21
I-10
sg22
I-10
sg23
I-10
sg24
I-10
sg25
I-10
ssI20
(dp67
g3
I-22
sg4
I-22
sg5
I-22
sg6
I-22
sg7
I-22
sg8
I-22
sg10
I-22
sg11
I-22
sg12
I-22
sg13
I-22
sg14
I-22
sg15
I-22
sg16
I-22
sg17
I-22
sg18
I-22
sg19
I-22
sg20
I-22
sg21
I-22
sg22
I-22
sg23
I-22
sg24
I-22
sg25
I-22
ssI21
(dp68
S'COLON'
p69
I81
ssI22
(dp70
S'COLON'
p71
I82
ssI23
(dp72
g3
I-3
sg4
I-3
sg5
I-3
sg6
I-3
sg7
I-3
sg8
I-3
sg10
I-3
sg11
I-3
sg12
I-3
sg13
I-3
sg14
I-3
sg15
I-3
sg16
I-3
sg17
I-3
sg18
I-3
sg19
I-3
sg20
I-3
sg21
I-3
sg22
I-3
sg23
I-3
sg24
I-3
sg25
I-3
ssI24
(dp73
S'BACKSLASH'
p74
I83
ssI25
(dp75
S'COLON'
p76
I84
ssI26
(dp77
S'COLON'
p78
I85
ssI27
(dp79
S'COLON'
p80
I86
ssI28
(dp81
g3
I-7
sg4
I-7
sg5
I-7
sg6
I-7
sg7
I-7
sg8
I-7
sg10
I-7
sg11
I-7
sg12
I-7
sg13
I-7
sg14
I-7
sg15
I-7
sg16
I-7
sg17
I-7
sg18
I-7
sg19
I-7
sg20
I-7
sg21
I-7
sg22
I-7
sg23
I-7
sg24
I-7
sg25
I-7
ssI29
(dp82
S'COLON'
p83
I87
ssI30
(dp84
S'COLON'
p85
I88
ssI31
(dp86
g3
I-20
sg4
I-20
sg5
I-20
sg6
I-20
sg7
I-20
sg8
I-20
sg10
I-20
sg11
I-20
sg12
I-20
sg13
I-20
sg14
I-20
sg15
I-20
sg16
I-20
sg17
I-20
sg18
I-20
sg19
I-20
sg20
I-20
sg21
I-20
sg22
I-20
sg23
I-20
sg24
I-20
sg25
I-20
ssI32
(dp87
g3
I-2
sg4
I-2
sg5
I-2
sg6
I-2
sg7
I-2
sg8
I-2
sg10
I-2
sg11
I-2
sg12
I-2
sg13
I-2
sg14
I-2
sg15
I-2
sg16
I-2
sg17
I-2
sg18
I-2
sg19
I-2
sg20
I-2
sg21
I-2
sg22
I-2
sg23
I-2
sg24
I-2
sg25
I-2
ssI33
(dp88
S'COLON'
p89
I89
ssI34
(dp90
g3
I-25
sg4
I-25
sg5
I-25
sg6
I-25
sg7
I-25
sg8
I-25
sg10
I-25
sg11
I-25
sg12
I-25
sg13
I-25
sg14
I-25
sg15
I-25
sg16
I-25
sg17
I-25
sg18
I-25
sg19
I-25
sg20
I-25
sg21
I-25
sg22
I-25
sg23
I-25
sg24
I-25
sg25
I-25
ssI35
(dp91
g3
I-5
sg4
I-5
sg5
I-5
sg6
I-5
sg7
I-5
sg8
I-5
sg10
I-5
sg11
I-5
sg12
I-5
sg13
I-5
sg14
I-5
sg15
I-5
sg16
I-5
sg17
I-5
sg18
I-5
sg19
I-5
sg20
I-5
sg21
I-5
sg22
I-5
sg23
I-5
sg24
I-5
sg25
I-5
ssI36
(dp92
g3
I-9
sg4
I-9
sg5
I-9
sg6
I-9
sg7
I-9
sg8
I-9
sg10
I-9
sg11
I-9
sg12
I-9
sg13
I-9
sg14
I-9
sg15
I-9
sg16
I-9
sg17
I-9
sg18
I-9
sg19
I-9
sg20
I-9
sg21
I-9
sg22
I-9
sg23
I-9
sg24
I-9
sg25
I-9
ssI37
(dp93
g3
I-16
sg4
I-16
sg5
I-16
sg6
I-16
sg7
I-16
sg8
I-16
sg10
I-16
sg11
I-16
sg12
I-16
sg13
I-16
sg14
I-16
sg15
I-16
sg16
I-16
sg17
I-16
sg18
I-16
sg19
I-16
sg20
I-16
sg21
I-16
sg22
I-16
sg23
I-16
sg24
I-16
sg25
I-16
ssI38
(dp94
g3
I-27
sg4
I-27
sg5
I-27
sg6
I-27
sg7
I-27
sg8
I-27
sg10
I-27
sg11
I-27
sg12
I-27
sg13
I-27
sg14
I-27
sg15
I-27
sg16
I-27
sg17
I-27
sg18
I-27
sg19
I-27
sg20
I-27
sg21
I-27
sg22
I-27
sg23
I-27
sg24
I-27
sg25
I-27
ssI39
(dp95
g3
I-8
sg4
I-8
sg5
I-8
sg6
I-8
sg7
I-8
sg8
I-8
sg10
I-8
sg11
I-8
sg12
I-8
sg13
I-8
sg14
I-8
sg15
I-8
sg16
I-8
sg17
I-8
sg18
I-8
sg19
I-8
sg20
I-8
sg21
I-8
sg22
I-8
sg23
I-8
sg24
I-8
sg25
I-8
ssI40
(dp96
S'COLON'
p97
I90
ssI41
(dp98
g3
I-19
sg4
I-19
sg5
I-19
sg6
I-19
sg7
I-19
sg8
I-19
sg10
I-19
sg11
I-19
sg12
I-19
sg13
I-19
sg14
I-19
sg15
I-19
sg16
I-19
sg17
I-19
sg18
I-19
sg19
I-19
sg20
I-19
sg21
I-19
sg22
I-19
sg23
I-19
sg24
I-19
sg25
I-19
ssI42
(dp99
S'INDENT'
p100
I91
ssI43
(dp101
g3
I26
sg4
I3
sg5
I11
sg6
I14
sg7
I13
sg8
I27
sg10
I45
sg11
I21
sg12
I22
sg13
I25
sS'$end'
p102
I0
sg15
I7
sg16
I30
sg17
I33
sg18
I29
sg19
I40
sg20
I53
sg21
I24
sg22
I46
sg23
I8
sg24
I50
sg25
I52
ssI44
(dp103
g3
I-12
sg4
I-12
sg5
I-12
sg6
I-12
sg7
I-12
sg8
I-12
sg10
I-12
sg11
I-12
sg12
I-12
sg13
I-12
sg14
I-12
sg15
I-12
sg16
I-12
sg17
I-12
sg18
I-12
sg19
I-12
sg20
I-12
sg21
I-12
sg22
I-12
sg23
I-12
sg24
I-12
sg25
I-12
ssI45
(dp104
S'COLON'
p105
I93
ssI46
(dp106
S'COLON'
p107
I94
ssI47
(dp108
g3
I-17
sg4
I-17
sg5
I-17
sg6
I-17
sg7
I-17
sg8
I-17
sg10
I-17
sg11
I-17
sg12
I-17
sg13
I-17
sg14
I-17
sg15
I-17
sg16
I-17
sg17
I-17
sg18
I-17
sg19
I-17
sg20
I-17
sg21
I-17
sg22
I-17
sg23
I-17
sg24
I-17
sg25
I-17
ssI48
(dp109
g3
I-23
sg4
I-23
sg5
I-23
sg6
I-23
sg7
I-23
sg8
I-23
sg10
I-23
sg11
I-23
sg12
I-23
sg13
I-23
sg14
I-23
sg15
I-23
sg16
I-23
sg17
I-23
sg18
I-23
sg19
I-23
sg20
I-23
sg21
I-23
sg22
I-23
sg23
I-23
sg24
I-23
sg25
I-23
ssI49
(dp110
g3
I-14
sg4
I-14
sg5
I-14
sg6
I-14
sg7
I-14
sg8
I-14
sg10
I-14
sg11
I-14
sg12
I-14
sg13
I-14
sg14
I-14
sg15
I-14
sg16
I-14
sg17
I-14
sg18
I-14
sg19
I-14
sg20
I-14
sg21
I-14
sg22
I-14
sg23
I-14
sg24
I-14
sg25
I-14
ssI50
(dp111
S'COLON'
p112
I95
ssI51
(dp113
g3
I-15
sg4
I-15
sg5
I-15
sg6
I-15
sg7
I-15
sg8
I-15
sg10
I-15
sg11
I-15
sg12
I-15
sg13
I-15
sg14
I-15
sg15
I-15
sg16
I-15
sg17
I-15
sg18
I-15
sg19
I-15
sg20
I-15
sg21
I-15
sg22
I-15
sg23
I-15
sg24
I-15
sg25
I-15
ssI52
(dp114
S'COLON'
p115
I96
ssI53
(dp116
S'COLON'
p117
I97
ssI54
(dp118
S'INSTALL_REQUIRES_ID'
p119
I107
sS'EXTENSION_ID'
p120
I98
sS'MODULES_ID'
p121
I108
sS'BUILD_REQUIRES_ID'
p122
I112
sS'PACKAGES_ID'
p123
I104
sS'IF'
p124
I109
ssI55
(dp125
g49
I62
sg50
I68
sg51
I76
sg52
I63
sg54
I64
sg55
I65
sg56
I78
sg57
I73
sg58
I71
sg59
I70
sS'WS'
p126
I115
ssI56
(dp127
S'MODULE_ID'
p128
I121
sS'FUNCTION_ID'
p129
I122
ssI57
(dp130
g49
I62
sg50
I68
sg51
I76
sg52
I63
sg54
I64
sg55
I65
sg59
I70
sg57
I73
sg58
I71
sS'INDENT'
p131
I125
ssI58
(dp132
S'WORD'
p133
I129
ssI59
(dp134
g49
I62
sg50
I68
sg51
I76
sg52
I63
sg54
I64
sg55
I65
sg56
I78
sg57
I73
sg58
I71
sg59
I70
sg126
I115
ssI60
(dp135
g49
I62
sg50
I68
sg51
I76
sg52
I63
sg54
I64
sg55
I65
sg56
I78
sg57
I73
sg58
I71
sg59
I70
sg126
I115
ssI61
(dp136
g49
I62
sg50
I68
sg51
I76
sg52
I63
sg54
I64
sg55
I65
sg56
I78
sg57
I73
sg58
I71
sg59
I70
sS'WS'
p137
I133
ssI62
(dp138
S'DEDENT'
p139
I-146
sg49
I-146
sS'NEWLINE'
p140
I-146
sg52
I-146
sg3
I-146
sg4
I-146
sg54
I-146
sg55
I-146
sg59
I-146
sg126
I-146
sg120
I-146
sg128
I-146
sg5
I-146
sg6
I-146
sg7
I-146
sS'INCLUDE_DIRS_ID'
p141
I-146
sg8
I-146
sg129
I-146
sg50
I-146
sS'FILES_ID'
p142
I-146
sg10
I-146
sg56
I-146
sg58
I-146
sg11
I-146
sg12
I-146
sg13
I-146
sg14
I-146
sS'SRCDIR_ID'
p143
I-146
sg15
I-146
sg16
I-146
sS'TARGET_ID'
p144
I-146
sg17
I-146
sg119
I-146
sg57
I-146
sg121
I-146
sg18
I-146
sg19
I-146
sg20
I-146
sg124
I-146
sg21
I-146
sS'INDENT'
p145
I-146
sg51
I-146
sg22
I-146
sg23
I-146
sg24
I-146
sS'DEFAULT_ID'
p146
I-146
sg25
I-146
sg123
I-146
sg122
I-146
sS'SOURCES_ID'
p147
I-146
ssI63
(dp148
g139
I-148
sg49
I-148
sg140
I-148
sg52
I-148
sg3
I-148
sg4
I-148
sg54
I-148
sg55
I-148
sg59
I-148
sg126
I-148
sg120
I-148
sg128
I-148
sg5
I-148
sg6
I-148
sg7
I-148
sg141
I-148
sg8
I-148
sg129
I-148
sg50
I-148
sg142
I-148
sg10
I-148
sg56
I-148
sg58
I-148
sg11
I-148
sg12
I-148
sg13
I-148
sg14
I-148
sg143
I-148
sg15
I-148
sg16
I-148
sg144
I-148
sg17
I-148
sg119
I-148
sg57
I-148
sg121
I-148
sg18
I-148
sg19
I-148
sg20
I-148
sg124
I-148
sg21
I-148
sg145
I-148
sg51
I-148
sg22
I-148
sg23
I-148
sg24
I-148
sg146
I-148
sg25
I-148
sg123
I-148
sg122
I-148
sg147
I-148
ssI64
(dp149
g139
I-151
sg49
I-151
sg140
I-151
sg52
I-151
sg3
I-151
sg4
I-151
sg54
I-151
sg55
I-151
sg59
I-151
sg126
I-151
sg120
I-151
sg128
I-151
sg5
I-151
sg6
I-151
sg7
I-151
sg141
I-151
sg8
I-151
sg129
I-151
sg50
I-151
sg142
I-151
sg10
I-151
sg56
I-151
sg58
I-151
sg11
I-151
sg12
I-151
sg13
I-151
sg14
I-151
sg143
I-151
sg15
I-151
sg16
I-151
sg144
I-151
sg17
I-151
sg119
I-151
sg57
I-151
sg121
I-151
sg18
I-151
sg19
I-151
sg20
I-151
sg124
I-151
sg21
I-151
sg145
I-151
sg51
I-151
sg22
I-151
sg23
I-151
sg24
I-151
sg146
I-151
sg25
I-151
sg123
I-151
sg122
I-151
sg147
I-151
ssI65
(dp150
g139
I-147
sg49
I-147
sg140
I-147
sg52
I-147
sg3
I-147
sg4
I-147
sg54
I-147
sg55
I-147
sg59
I-147
sg126
I-147
sg120
I-147
sg128
I-147
sg5
I-147
sg6
I-147
sg7
I-147
sg141
I-147
sg8
I-147
sg129
I-147
sg50
I-147
sg142
I-147
sg10
I-147
sg56
I-147
sg58
I-147
sg11
I-147
sg12
I-147
sg13
I-147
sg14
I-147
sg143
I-147
sg15
I-147
sg16
I-147
sg144
I-147
sg17
I-147
sg119
I-147
sg57
I-147
sg121
I-147
sg18
I-147
sg19
I-147
sg20
I-147
sg124
I-147
sg21
I-147
sg145
I-147
sg51
I-147
sg22
I-147
sg23
I-147
sg24
I-147
sg146
I-147
sg25
I-147
sg123
I-147
sg122
I-147
sg147
I-147
ssI66
(dp151
S'DEDENT'
p152
I-153
sg49
I-153
sg52
I-153
sg3
I-153
sg4
I-153
sg54
I-153
sg55
I-153
sg59
I-153
sg126
I-153
sg128
I-153
sg5
I-153
sg6
I-153
sg7
I-153
sg8
I-153
sg129
I-153
sg50
I-153
sS'NEWLINE'
p153
I-153
sg10
I-153
sg56
I-153
sg58
I-153
sg11
I-153
sg12
I-153
sg13
I-153
sg14
I-153
sg143
I-153
sg15
I-153
sg16
I-153
sg144
I-153
sg17
I-153
sg57
I-153
sg18
I-153
sg19
I-153
sg20
I-153
sg21
I-153
sg142
I-153
sg64
I-153
sg51
I-153
sg22
I-153
sg23
I-153
sg24
I-153
sS'DEFAULT_ID'
p154
I-153
sg25
I-153
ssI67
(dp155
g49
I62
sg50
I68
sg51
I76
sg52
I63
sS'NEWLINE'
p156
I135
sg54
I64
sg55
I65
sg59
I70
sg57
I73
sg58
I71
sg56
I78
ssI68
(dp157
g139
I-144
sg49
I-144
sg140
I-144
sg52
I-144
sg3
I-144
sg4
I-144
sg54
I-144
sg55
I-144
sg59
I-144
sg126
I-144
sg120
I-144
sg128
I-144
sg5
I-144
sg6
I-144
sg7
I-144
sg141
I-144
sg8
I-144
sg129
I-144
sg50
I-144
sg142
I-144
sg10
I-144
sg56
I-144
sg58
I-144
sg11
I-144
sg12
I-144
sg13
I-144
sg14
I-144
sg143
I-144
sg15
I-144
sg16
I-144
sg144
I-144
sg17
I-144
sg119
I-144
sg57
I-144
sg121
I-144
sg18
I-144
sg19
I-144
sg20
I-144
sg124
I-144
sg21
I-144
sg145
I-144
sg51
I-144
sg22
I-144
sg23
I-144
sg24
I-144
sg146
I-144
sg25
I-144
sg123
I-144
sg122
I-144
sg147
I-144
ssI69
(dp158
S'INDENT'
p159
I137
ssI70
(dp160
g139
I-145
sg49
I-145
sg140
I-145
sg52
I-145
sg3
I-145
sg4
I-145
sg54
I-145
sg55
I-145
sg59
I-145
sg126
I-145
sg120
I-145
sg128
I-145
sg5
I-145
sg6
I-145
sg7
I-145
sg141
I-145
sg8
I-145
sg129
I-145
sg50
I-145
sg142
I-145
sg10
I-145
sg56
I-145
sg58
I-145
sg11
I-145
sg12
I-145
sg13
I-145
sg14
I-145
sg143
I-145
sg15
I-145
sg16
I-145
sg144
I-145
sg17
I-145
sg119
I-145
sg57
I-145
sg121
I-145
sg18
I-145
sg19
I-145
sg20
I-145
sg124
I-145
sg21
I-145
sg145
I-145
sg51
I-145
sg22
I-145
sg23
I-145
sg24
I-145
sg146
I-145
sg25
I-145
sg123
I-145
sg122
I-145
sg147
I-145
ssI71
(dp161
g139
I-150
sg49
I-150
sg140
I-150
sg52
I-150
sg3
I-150
sg4
I-150
sg54
I-150
sg55
I-150
sg59
I-150
sg126
I-150
sg120
I-150
sg128
I-150
sg5
I-150
sg6
I-150
sg7
I-150
sg141
I-150
sg8
I-150
sg129
I-150
sg50
I-150
sg142
I-150
sg10
I-150
sg56
I-150
sg58
I-150
sg11
I-150
sg12
I-150
sg13
I-150
sg14
I-150
sg143
I-150
sg15
I-150
sg16
I-150
sg144
I-150
sg17
I-150
sg119
I-150
sg57
I-150
sg121
I-150
sg18
I-150
sg19
I-150
sg20
I-150
sg124
I-150
sg21
I-150
sg145
I-150
sg51
I-150
sg22
I-150
sg23
I-150
sg24
I-150
sg146
I-150
sg25
I-150
sg123
I-150
sg122
I-150
sg147
I-150
ssI72
(dp162
S'DEDENT'
p163
I-124
sg49
I62
sg52
I63
sg3
I-124
sg4
I-124
sg54
I64
sg55
I65
sg154
I-124
sg126
I115
sg5
I-124
sg6
I-124
sg7
I-124
sg8
I-124
sg50
I68
sg140
I-124
sg10
I-124
sg56
I78
sg59
I70
sg11
I-124
sg12
I-124
sg13
I-124
sg14
I-124
sg15
I-124
sg16
I-124
sg17
I-124
sg57
I73
sg58
I71
sg18
I-124
sg19
I-124
sg20
I-124
sg21
I-124
sg51
I76
sS'DESCRIPTION_ID'
p164
I-124
sg23
I-124
sg24
I-124
sg25
I-124
ssI73
(dp165
g139
I-149
sg49
I-149
sg140
I-149
sg52
I-149
sg3
I-149
sg4
I-149
sg54
I-149
sg55
I-149
sg59
I-149
sg126
I-149
sg120
I-149
sg128
I-149
sg5
I-149
sg6
I-149
sg7
I-149
sg141
I-149
sg8
I-149
sg129
I-149
sg50
I-149
sg142
I-149
sg10
I-149
sg56
I-149
sg58
I-149
sg11
I-149
sg12
I-149
sg13
I-149
sg14
I-149
sg143
I-149
sg15
I-149
sg16
I-149
sg144
I-149
sg17
I-149
sg119
I-149
sg57
I-149
sg121
I-149
sg18
I-149
sg19
I-149
sg20
I-149
sg124
I-149
sg21
I-149
sg145
I-149
sg51
I-149
sg22
I-149
sg23
I-149
sg24
I-149
sg146
I-149
sg25
I-149
sg123
I-149
sg122
I-149
sg147
I-149
ssI74
(dp166
g3
I-130
sg4
I-130
sg5
I-130
sg6
I-130
sg7
I-130
sg8
I-130
sg140
I139
sg10
I-130
sg11
I-130
sg12
I-130
sg13
I-130
sg14
I-130
sg15
I-130
sg16
I-130
sg17
I-130
sg18
I-130
sg19
I-130
sg20
I-130
sg21
I-130
sg22
I-130
sg23
I-130
sg24
I-130
sg25
I-130
ssI75
(dp167
g163
I-126
sg49
I-126
sg52
I-126
sg3
I-126
sg4
I-126
sg54
I-126
sg55
I-126
sg59
I-126
sg126
I-126
sg5
I-126
sg6
I-126
sg7
I-126
sg8
I-126
sg50
I-126
sg140
I-126
sg10
I-126
sg56
I-126
sg58
I-126
sg11
I-126
sg12
I-126
sg13
I-126
sg14
I-126
sg15
I-126
sg16
I-126
sg17
I-126
sg57
I-126
sg18
I-126
sg19
I-126
sg20
I-126
sg21
I-126
sg51
I-126
sg22
I-126
sg23
I-126
sg24
I-126
sg154
I-126
sg25
I-126
ssI76
(dp168
g139
I-152
sg49
I-152
sg140
I-152
sg52
I-152
sg3
I-152
sg4
I-152
sg54
I-152
sg55
I-152
sg59
I-152
sg126
I-152
sg120
I-152
sg128
I-152
sg5
I-152
sg6
I-152
sg7
I-152
sg141
I-152
sg8
I-152
sg129
I-152
sg50
I-152
sg142
I-152
sg10
I-152
sg56
I-152
sg58
I-152
sg11
I-152
sg12
I-152
sg13
I-152
sg14
I-152
sg143
I-152
sg15
I-152
sg16
I-152
sg144
I-152
sg17
I-152
sg119
I-152
sg57
I-152
sg121
I-152
sg18
I-152
sg19
I-152
sg20
I-152
sg124
I-152
sg21
I-152
sg145
I-152
sg51
I-152
sg22
I-152
sg23
I-152
sg24
I-152
sg146
I-152
sg25
I-152
sg123
I-152
sg122
I-152
sg147
I-152
ssI77
(dp169
S'INDENT'
p170
I141
ssI78
(dp171
g152
I-154
sg49
I-154
sg52
I-154
sg3
I-154
sg4
I-154
sg54
I-154
sg55
I-154
sg59
I-154
sg126
I-154
sg128
I-154
sg5
I-154
sg6
I-154
sg7
I-154
sg8
I-154
sg129
I-154
sg50
I-154
sg153
I-154
sg10
I-154
sg56
I-154
sg58
I-154
sg11
I-154
sg12
I-154
sg13
I-154
sg14
I-154
sg143
I-154
sg15
I-154
sg16
I-154
sg144
I-154
sg17
I-154
sg57
I-154
sg18
I-154
sg19
I-154
sg20
I-154
sg21
I-154
sg142
I-154
sg64
I-154
sg51
I-154
sg22
I-154
sg23
I-154
sg24
I-154
sg154
I-154
sg25
I-154
ssI79
(dp172
g164
I145
sg154
I147
ssI80
(dp173
S'DESCRIPTION_ID'
p174
I148
sg146
I150
ssI81
(dp175
g49
I62
sg50
I68
sg51
I76
sg52
I63
sg54
I64
sg55
I65
sg56
I78
sg57
I73
sg58
I71
sg59
I70
sg137
I133
ssI82
(dp176
g49
I62
sg50
I68
sg51
I76
sg52
I63
sg54
I64
sg55
I65
sg56
I78
sg57
I73
sg58
I71
sg59
I70
sg126
I115
ssI83
(dp177
g3
I-46
sg4
I-46
sg5
I-46
sg6
I-46
sg7
I-46
sg8
I-46
sg10
I-46
sg11
I-46
sg12
I-46
sg13
I-46
sg14
I-46
sg15
I-46
sg16
I-46
sg17
I-46
sg18
I-46
sg19
I-46
sg20
I-46
sg21
I-46
sg22
I-46
sg23
I-46
sg24
I-46
sg25
I-46
ssI84
(dp178
g49
I62
sg50
I68
sg51
I76
sg52
I63
sg54
I64
sg55
I65
sg56
I78
sg57
I73
sg58
I71
sg59
I70
sg126
I115
ssI85
(dp179
g49
I62
sg50
I68
sg51
I76
sg52
I63
sg54
I64
sg55
I65
sg56
I78
sg57
I73
sg58
I71
sg59
I70
sg137
I133
ssI86
(dp180
g3
I-62
sg4
I-62
sg5
I-62
sg6
I-62
sg7
I-62
sg8
I-62
sS'WORD'
p181
I158
sg10
I-62
sg11
I-62
sg12
I-62
sg13
I-62
sg14
I-62
sg15
I-62
sg16
I-62
sg17
I-62
sg18
I-62
sg19
I-62
sg20
I-62
sg21
I-62
sg28
I-62
sg22
I-62
sg23
I-62
sg24
I-62
sg25
I-62
ssI87
(dp182
g49
I62
sg50
I68
sg51
I76
sg52
I63
sg54
I64
sg55
I65
sg56
I78
sg57
I73
sg58
I71
sg59
I70
sg126
I115
ssI88
(dp183
g181
I158
ssI89
(dp184
g49
I62
sg50
I68
sg51
I76
sg52
I63
sg54
I64
sg55
I65
sg56
I78
sg57
I73
sg58
I71
sg59
I70
sg126
I115
ssI90
(dp185
g49
I62
sg50
I68
sg51
I76
sg52
I63
sg54
I64
sg55
I65
sg56
I78
sg57
I73
sg58
I71
sg59
I70
sg126
I115
ssI91
(dp186
g143
I172
sg144
I169
sg142
I168
ssI92
(dp187
g3
I-1
sg4
I-1
sg5
I-1
sg6
I-1
sg7
I-1
sg8
I-1
sg10
I-1
sg11
I-1
sg12
I-1
sg13
I-1
sg14
I-1
sg15
I-1
sg16
I-1
sg17
I-1
sg18
I-1
sg19
I-1
sg20
I-1
sg21
I-1
sg22
I-1
sg23
I-1
sg24
I-1
sg25
I-1
ssI93
(dp188
g49
I62
sg50
I68
sg51
I76
sg52
I63
sg54
I64
sg55
I65
sg56
I78
sg57
I73
sg58
I71
sg59
I70
sg126
I115
ssI94
(dp189
g49
I-132
sg50
I-132
sg51
I-132
sg52
I-132
sg53
I-132
sg54
I-132
sg55
I-132
sg56
I-132
sg57
I-132
sg58
I-132
sg59
I-132
sg60
I-132
ssI95
(dp190
g49
I62
sg50
I68
sg51
I76
sg52
I63
sS'NEWLINE'
p191
I174
sg54
I64
sg55
I65
sg56
I78
sg57
I73
sg58
I71
sg59
I70
sg126
I115
ssI96
(dp192
S'WORD'
p193
I178
ssI97
(dp194
g49
I62
sg50
I68
sg51
I76
sg52
I63
sg54
I64
sg55
I65
sg56
I78
sg57
I73
sg58
I71
sg59
I70
sg126
I115
ssI98
(dp195
S'COLON'
p196
I180
ssI99
(dp197
S'DEDENT'
p198
I-64
sg119
I-64
sg120
I-64
sg121
I-64
sg122
I-64
sg123
I-64
sg124
I-64
ssI100
(dp199
S'DEDENT'
p200
I-66
sg119
I-66
sg120
I-66
sg121
I-66
sg122
I-66
sg123
I-66
sg124
I-66
ssI101
(dp201
g200
I-69
sg119
I-69
sg120
I-69
sg121
I-69
sg122
I-69
sg123
I-69
sg124
I-69
ssI102
(dp202
g200
I-67
sg119
I-67
sg120
I-67
sg121
I-67
sg122
I-67
sg123
I-67
sg124
I-67
ssI103
(dp203
g198
I181
sg119
I107
sg120
I98
sg121
I108
sg122
I112
sg123
I104
sg124
I109
ssI104
(dp204
S'COLON'
p205
I183
ssI105
(dp206
g200
I-68
sg119
I-68
sg120
I-68
sg121
I-68
sg122
I-68
sg123
I-68
sg124
I-68
ssI106
(dp207
g200
I-65
sg119
I-65
sg120
I-65
sg121
I-65
sg122
I-65
sg123
I-65
sg124
I-65
ssI107
(dp208
S'COLON'
p209
I184
ssI108
(dp210
S'COLON'
p211
I185
ssI109
(dp212
S'FALSE'
p213
I189
sS'FLAG_OP'
p214
I186
sS'TRUE'
p215
I194
sS'OS_OP'
p216
I190
sS'error'
p217
I191
ssI110
(dp218
g200
I-70
sg119
I-70
sg120
I-70
sg121
I-70
sg122
I-70
sg123
I-70
sg124
I-70
ssI111
(dp219
S'INDENT'
p220
I195
ssI112
(dp221
S'COLON'
p222
I196
ssI113
(dp223
g139
I-155
sg49
I-155
sg52
I-155
sg3
I-155
sg4
I-155
sg54
I-155
sg55
I-155
sg59
I-155
sg126
I-155
sg128
I-155
sg5
I-155
sg6
I-155
sg7
I-155
sg8
I-155
sg129
I-155
sg50
I-155
sg153
I-155
sg10
I-155
sg56
I-155
sg58
I-155
sg11
I-155
sg12
I-155
sg13
I-155
sg14
I-155
sg143
I-155
sg15
I-155
sg16
I-155
sg144
I-155
sg17
I-155
sg57
I-155
sg18
I-155
sg19
I-155
sg20
I-155
sg21
I-155
sg220
I-155
sg51
I-155
sg142
I-155
sg23
I-155
sg24
I-155
sg22
I-155
sg154
I-155
sg25
I-155
ssI114
(dp224
g163
I-141
sg49
I-141
sg52
I-141
sg3
I-141
sg4
I-141
sg54
I-141
sg55
I-141
sg59
I-141
sg126
I-141
sg128
I-141
sg5
I-141
sg6
I-141
sg7
I-141
sg8
I-141
sg129
I-141
sg50
I-141
sg142
I-141
sg10
I-141
sg56
I-141
sg58
I-141
sg11
I-141
sg12
I-141
sg13
I-141
sg14
I-141
sg143
I-141
sg15
I-141
sg16
I-141
sg144
I-141
sg17
I-141
sg57
I-141
sg18
I-141
sg19
I-141
sg20
I-141
sg21
I-141
sg32
I-141
sg51
I-141
sg22
I-141
sg23
I-141
sg24
I-141
sg154
I-141
sg25
I-141
ssI115
(dp225
g139
I-156
sg49
I-156
sg52
I-156
sg3
I-156
sg4
I-156
sg54
I-156
sg55
I-156
sg59
I-156
sg126
I-156
sg128
I-156
sg5
I-156
sg6
I-156
sg7
I-156
sg8
I-156
sg129
I-156
sg50
I-156
sg153
I-156
sg10
I-156
sg56
I-156
sg58
I-156
sg11
I-156
sg12
I-156
sg13
I-156
sg14
I-156
sg143
I-156
sg15
I-156
sg16
I-156
sg144
I-156
sg17
I-156
sg57
I-156
sg18
I-156
sg19
I-156
sg20
I-156
sg21
I-156
sg220
I-156
sg51
I-156
sg142
I-156
sg23
I-156
sg24
I-156
sg22
I-156
sg154
I-156
sg25
I-156
ssI116
(dp226
g49
I62
sg52
I63
sg3
I-37
sg4
I-37
sg54
I64
sg55
I65
sg126
I115
sg5
I-37
sg6
I-37
sg7
I-37
sg8
I-37
sg50
I68
sg10
I-37
sg56
I78
sg59
I70
sg11
I-37
sg12
I-37
sg13
I-37
sg14
I-37
sg15
I-37
sg16
I-37
sg17
I-37
sg57
I73
sg58
I71
sg18
I-37
sg19
I-37
sg20
I-37
sg21
I-37
sg51
I76
sg22
I-37
sg23
I-37
sg24
I-37
sg25
I-37
ssI117
(dp227
S'DEDENT'
p228
I-111
sg128
I-111
sg129
I-111
ssI118
(dp229
g228
I198
sg128
I121
sg129
I122
ssI119
(dp230
g228
I-112
sg128
I-112
sg129
I-112
ssI120
(dp231
g228
I-110
sg128
I-110
sg129
I-110
ssI121
(dp232
S'COLON'
p233
I200
ssI122
(dp234
S'COLON'
p235
I201
ssI123
(dp236
S'DEDENT'
p237
I-116
sg142
I-116
sg3
I-116
sg4
I-116
sg120
I-116
sg5
I-116
sg141
I-116
sg7
I-116
sg6
I-116
sg8
I-116
sg10
I-116
sg147
I-116
sS'COMMA'
p238
I202
sg11
I-116
sg12
I-116
sg123
I-116
sg14
I-116
sg143
I-116
sg15
I-116
sg16
I-116
sg144
I-116
sg17
I-116
sg119
I-116
sg121
I-116
sg18
I-116
sg19
I-116
sg20
I-116
sg124
I-116
sg21
I-116
sg22
I-116
sg23
I-116
sg24
I-116
sg25
I-116
sg13
I-116
sg122
I-116
ssI124
(dp239
g237
I-143
sg49
I-143
sg52
I-143
sg3
I-143
sg4
I-143
sg54
I-143
sg55
I-143
sg120
I-143
sg5
I-143
sg6
I-143
sg7
I-143
sg141
I-143
sg8
I-143
sg50
I-143
sg142
I-143
sg10
I-143
sg59
I-143
sg58
I-143
sg11
I-143
sg12
I-143
sg13
I-143
sg14
I-143
sg143
I-143
sg15
I-143
sg16
I-143
sg144
I-143
sg17
I-143
sg119
I-143
sg57
I-143
sg121
I-143
sg18
I-143
sg19
I-143
sg20
I-143
sg124
I-143
sg21
I-143
sg51
I-143
sg22
I-143
sg23
I-143
sg24
I-143
sg25
I-143
sg123
I-143
sg122
I-143
sg238
I-143
sg147
I-143
ssI125
(dp240
g49
I62
sg50
I68
sg51
I76
sg52
I63
sg54
I64
sg55
I65
sg59
I70
sg57
I73
sg58
I71
ssI126
(dp241
g198
I-120
sg49
I62
sg142
I-120
sg3
I-120
sg4
I-120
sg54
I64
sg55
I65
sg59
I70
sg120
I-120
sg5
I-120
sg141
I-120
sg7
I-120
sg6
I-120
sg8
I-120
sg50
I68
sg52
I63
sg10
I-120
sg238
I-120
sg147
I-120
sg11
I-120
sg12
I-120
sg123
I-120
sg14
I-120
sg143
I-120
sg15
I-120
sg58
I71
sg16
I-120
sg144
I-120
sg17
I-120
sg119
I-120
sg57
I73
sg121
I-120
sg18
I-120
sg19
I-120
sg20
I-120
sg124
I-120
sg21
I-120
sg51
I76
sg22
I-120
sg23
I-120
sg24
I-120
sg25
I-120
sg13
I-120
sg122
I-120
ssI127
(dp242
g3
I-47
sg4
I-47
sg5
I-47
sg6
I-47
sg7
I-47
sg8
I-47
sg10
I-47
sg11
I-47
sg12
I-47
sg13
I-47
sg14
I-47
sg15
I-47
sg16
I-47
sg17
I-47
sg18
I-47
sg19
I-47
sg20
I-47
sg21
I-47
sg22
I-47
sg23
I-47
sg24
I-47
sg25
I-47
ssI128
(dp243
g237
I-115
sg142
I-115
sg3
I-115
sg4
I-115
sg120
I-115
sg5
I-115
sg141
I-115
sg7
I-115
sg6
I-115
sg8
I-115
sg10
I-115
sg147
I-115
sg11
I-115
sg12
I-115
sg123
I-115
sg14
I-115
sg143
I-115
sg15
I-115
sg16
I-115
sg144
I-115
sg17
I-115
sg119
I-115
sg121
I-115
sg18
I-115
sg19
I-115
sg20
I-115
sg124
I-115
sg21
I-115
sg22
I-115
sg23
I-115
sg24
I-115
sg25
I-115
sg13
I-115
sg122
I-115
ssI129
(dp244
g3
I-162
sg4
I-162
sg5
I-162
sg6
I-162
sg7
I-162
sg8
I-162
sg10
I-162
sg11
I-162
sg12
I-162
sg13
I-162
sg14
I-162
sg15
I-162
sg16
I-162
sg17
I-162
sg18
I-162
sg19
I-162
sg20
I-162
sg21
I-162
sg22
I-162
sg23
I-162
sg24
I-162
sg25
I-162
ssI130
(dp245
g3
I-38
sg4
I-38
sg5
I-38
sg6
I-38
sg7
I-38
sg8
I-38
sg10
I-38
sg11
I-38
sg12
I-38
sg13
I-38
sg14
I-38
sg15
I-38
sg16
I-38
sg17
I-38
sg18
I-38
sg19
I-38
sg20
I-38
sg21
I-38
sg22
I-38
sg23
I-38
sg24
I-38
sg25
I-38
ssI131
(dp246
g49
I62
sg62
I-100
sg51
I76
sg52
I63
sg58
I71
sg54
I64
sg55
I65
sg126
I115
sg57
I73
sg50
I68
sg59
I70
sg56
I78
ssI132
(dp247
g49
I62
sg52
I63
sg3
I-30
sg4
I-30
sg54
I64
sg55
I65
sg126
I115
sg5
I-30
sg6
I-30
sg7
I-30
sg8
I-30
sg50
I68
sg10
I-30
sg56
I78
sg59
I70
sg11
I-30
sg12
I-30
sg13
I-30
sg14
I-30
sg15
I-30
sg16
I-30
sg17
I-30
sg57
I73
sg58
I71
sg18
I-30
sg19
I-30
sg20
I-30
sg21
I-30
sg51
I76
sg22
I-30
sg23
I-30
sg24
I-30
sg25
I-30
ssI133
(dp248
g49
I62
sg50
I68
sg51
I76
sg52
I63
sg54
I64
sg55
I65
sg59
I70
sg57
I73
sg58
I71
sg56
I78
ssI134
(dp249
g3
I-29
sg4
I-29
sg5
I-29
sg6
I-29
sg7
I-29
sg8
I-29
sg10
I-29
sg11
I-29
sg12
I-29
sg13
I-29
sg14
I-29
sg15
I-29
sg16
I-29
sg17
I-29
sg18
I-29
sg19
I-29
sg20
I-29
sg21
I-29
sg22
I-29
sg23
I-29
sg24
I-29
sg25
I-29
ssI135
(dp250
S'INDENT'
p251
I205
ssI136
(dp252
g163
I-123
sg49
I62
sg52
I63
sg3
I-123
sg4
I-123
sg54
I64
sg55
I65
sg154
I-123
sg126
I115
sg5
I-123
sg6
I-123
sg7
I-123
sg8
I-123
sg50
I68
sg140
I-123
sg10
I-123
sg56
I78
sg59
I70
sg11
I-123
sg12
I-123
sg13
I-123
sg14
I-123
sg15
I-123
sg16
I-123
sg17
I-123
sg57
I73
sg58
I71
sg18
I-123
sg19
I-123
sg20
I-123
sg21
I-123
sg51
I76
sg164
I-123
sg23
I-123
sg24
I-123
sg25
I-123
ssI137
(dp253
g49
I62
sg145
I213
sg51
I76
sg52
I63
sg58
I71
sg140
I139
sg54
I64
sg55
I65
sg126
I115
sg57
I73
sg50
I68
sg59
I70
sg56
I78
ssI138
(dp254
g163
I-125
sg49
I-125
sg52
I-125
sg3
I-125
sg4
I-125
sg54
I-125
sg55
I-125
sg59
I-125
sg126
I-125
sg5
I-125
sg6
I-125
sg7
I-125
sg8
I-125
sg50
I-125
sg140
I-125
sg10
I-125
sg56
I-125
sg58
I-125
sg11
I-125
sg12
I-125
sg13
I-125
sg14
I-125
sg15
I-125
sg16
I-125
sg17
I-125
sg57
I-125
sg18
I-125
sg19
I-125
sg20
I-125
sg21
I-125
sg51
I-125
sg22
I-125
sg23
I-125
sg24
I-125
sg154
I-125
sg25
I-125
ssI139
(dp255
S'DEDENT'
p256
I-139
sg49
I-139
sg170
I-139
sg51
I-139
sg52
I-139
sg58
I-139
sg140
I-139
sg54
I-139
sg55
I-139
sg126
I-139
sg57
I-139
sg50
I-139
sg59
I-139
sg56
I-139
ssI140
(dp257
g170
I-131
ssI141
(dp258
g49
I62
sg145
I213
sg51
I76
sg52
I63
sg58
I71
sg140
I139
sg54
I64
sg55
I65
sg126
I115
sg57
I73
sg50
I68
sg59
I70
sg56
I78
ssI142
(dp259
g163
I215
sg164
I145
sg154
I147
ssI143
(dp260
g163
I-103
sg164
I-103
sg154
I-103
ssI144
(dp261
g163
I-104
sg164
I-104
sg154
I-104
ssI145
(dp262
S'COLON'
p263
I217
ssI146
(dp264
g163
I-102
sg164
I-102
sg154
I-102
ssI147
(dp265
S'COLON'
p266
I218
ssI148
(dp267
S'COLON'
p268
I219
ssI149
(dp269
S'DEDENT'
p270
I-94
sg174
I-94
sg146
I-94
ssI150
(dp271
S'COLON'
p272
I220
ssI151
(dp273
g270
I-95
sg174
I-95
sg146
I-95
ssI152
(dp274
g270
I-96
sg174
I-96
sg146
I-96
ssI153
(dp275
g270
I221
sg174
I148
sg146
I150
ssI154
(dp276
g3
I-32
sg4
I-32
sg5
I-32
sg6
I-32
sg7
I-32
sg8
I-32
sg10
I-32
sg11
I-32
sg12
I-32
sg13
I-32
sg14
I-32
sg15
I-32
sg16
I-32
sg17
I-32
sg18
I-32
sg19
I-32
sg20
I-32
sg21
I-32
sg22
I-32
sg23
I-32
sg24
I-32
sg25
I-32
ssI155
(dp277
g49
I62
sg32
I-108
sg51
I76
sg52
I63
sg58
I71
sg54
I64
sg55
I65
sg126
I115
sg57
I73
sg50
I68
sg59
I70
sg56
I78
ssI156
(dp278
g49
I62
sg52
I63
sg3
I-39
sg4
I-39
sg54
I64
sg55
I65
sg126
I115
sg5
I-39
sg6
I-39
sg7
I-39
sg8
I-39
sg50
I68
sg10
I-39
sg56
I78
sg59
I70
sg11
I-39
sg12
I-39
sg13
I-39
sg14
I-39
sg15
I-39
sg16
I-39
sg17
I-39
sg57
I73
sg58
I71
sg18
I-39
sg19
I-39
sg20
I-39
sg21
I-39
sg51
I76
sg22
I-39
sg23
I-39
sg24
I-39
sg25
I-39
ssI157
(dp279
g3
I-34
sg4
I-34
sg5
I-34
sg6
I-34
sg7
I-34
sg8
I-34
sg10
I-34
sg11
I-34
sg12
I-34
sg13
I-34
sg14
I-34
sg15
I-34
sg16
I-34
sg17
I-34
sg18
I-34
sg19
I-34
sg20
I-34
sg21
I-34
sg22
I-34
sg23
I-34
sg24
I-34
sg25
I-34
ssI158
(dp280
g3
I-161
sg4
I-161
sS'RPAR'
p281
I-161
sg5
I-161
sg6
I-161
sg7
I-161
sg8
I-161
sg10
I-161
sg11
I-161
sg12
I-161
sg13
I-161
sg14
I-161
sg15
I-161
sg16
I-161
sg17
I-161
sg18
I-161
sg19
I-161
sg20
I-161
sg21
I-161
sg100
I-161
sg22
I-161
sg23
I-161
sg24
I-161
sg25
I-161
ssI159
(dp282
g3
I-61
sg4
I-61
sg5
I-61
sg6
I-61
sg7
I-61
sg8
I-61
sg10
I-61
sg11
I-61
sg12
I-61
sg13
I-61
sg14
I-61
sg15
I-61
sg16
I-61
sg17
I-61
sg18
I-61
sg19
I-61
sg20
I-61
sg21
I-61
sg28
I-61
sg22
I-61
sg23
I-61
sg24
I-61
sg25
I-61
ssI160
(dp283
g3
I-60
sg4
I-60
sg5
I-60
sg6
I-60
sg7
I-60
sg8
I-60
sg10
I-60
sg11
I-60
sg12
I-60
sg13
I-60
sg14
I-60
sg15
I-60
sg16
I-60
sg17
I-60
sg18
I-60
sg19
I-60
sg20
I-60
sg21
I-60
sg28
I-60
sg22
I-60
sg23
I-60
sg24
I-60
sg25
I-60
ssI161
(dp284
g49
I62
sg52
I63
sg3
I-36
sg4
I-36
sg54
I64
sg55
I65
sg126
I115
sg5
I-36
sg6
I-36
sg7
I-36
sg8
I-36
sg50
I68
sg10
I-36
sg56
I78
sg59
I70
sg11
I-36
sg12
I-36
sg13
I-36
sg14
I-36
sg15
I-36
sg16
I-36
sg17
I-36
sg57
I73
sg58
I71
sg18
I-36
sg19
I-36
sg20
I-36
sg21
I-36
sg51
I76
sg22
I-36
sg23
I-36
sg24
I-36
sg25
I-36
ssI162
(dp285
g100
I-49
ssI163
(dp286
g49
I62
sg52
I63
sg3
I-31
sg4
I-31
sg54
I64
sg55
I65
sg126
I115
sg5
I-31
sg6
I-31
sg7
I-31
sg8
I-31
sg50
I68
sg10
I-31
sg56
I78
sg59
I70
sg11
I-31
sg12
I-31
sg13
I-31
sg14
I-31
sg15
I-31
sg16
I-31
sg17
I-31
sg57
I73
sg58
I71
sg18
I-31
sg19
I-31
sg20
I-31
sg21
I-31
sg51
I76
sg22
I-31
sg23
I-31
sg24
I-31
sg25
I-31
ssI164
(dp287
g49
I62
sg52
I63
sg3
I-35
sg4
I-35
sg54
I64
sg55
I65
sg126
I115
sg5
I-35
sg6
I-35
sg7
I-35
sg8
I-35
sg50
I68
sg10
I-35
sg56
I78
sg59
I70
sg11
I-35
sg12
I-35
sg13
I-35
sg14
I-35
sg15
I-35
sg16
I-35
sg17
I-35
sg57
I73
sg58
I71
sg18
I-35
sg19
I-35
sg20
I-35
sg21
I-35
sg51
I76
sg22
I-35
sg23
I-35
sg24
I-35
sg25
I-35
ssI165
(dp288
g139
I223
sg143
I172
sg144
I169
sg142
I168
ssI166
(dp289
g139
I-52
sg143
I-52
sg144
I-52
sg142
I-52
ssI167
(dp290
g139
I-53
sg143
I-53
sg144
I-53
sg142
I-53
ssI168
(dp291
S'COLON'
p292
I225
ssI169
(dp293
S'COLON'
p294
I226
ssI170
(dp295
g139
I-51
sg143
I-51
sg144
I-51
sg142
I-51
ssI171
(dp296
g139
I-54
sg143
I-54
sg144
I-54
sg142
I-54
ssI172
(dp297
S'COLON'
p298
I227
ssI173
(dp299
g49
I62
sg64
I-92
sg51
I76
sg52
I63
sg58
I71
sg54
I64
sg55
I65
sg126
I115
sg57
I73
sg50
I68
sg59
I70
sg56
I78
ssI174
(dp300
S'INDENT'
p301
I228
ssI175
(dp302
g152
I-122
sg49
I62
sg52
I63
sg3
I-122
sg4
I-122
sg54
I64
sg55
I65
sg126
I115
sg5
I-122
sg6
I-122
sg7
I-122
sg8
I-122
sg50
I68
sg153
I-122
sg10
I-122
sg56
I78
sg59
I70
sg11
I-122
sg12
I-122
sg13
I-122
sg14
I-122
sg15
I-122
sg16
I-122
sg17
I-122
sg57
I73
sg58
I71
sg18
I-122
sg19
I-122
sg20
I-122
sg21
I-122
sg51
I76
sg22
I-122
sg23
I-122
sg24
I-122
sg25
I-122
ssI176
(dp303
g152
I-45
sg3
I-45
sg4
I-45
sg5
I-45
sg6
I-45
sg7
I-45
sg8
I-45
sS'NEWLINE'
p304
I-45
sg10
I-45
sg11
I-45
sg12
I-45
sg13
I-45
sg14
I-45
sg15
I-45
sg16
I-45
sg17
I-45
sg18
I-45
sg19
I-45
sg20
I-45
sg21
I-45
sg22
I-45
sg23
I-45
sg24
I-45
sg25
I-45
ssI177
(dp305
g3
I-40
sg4
I-40
sg5
I-40
sg6
I-40
sg7
I-40
sg8
I-40
sg153
I230
sg10
I-40
sg11
I-40
sg12
I-40
sg13
I-40
sg14
I-40
sg15
I-40
sg16
I-40
sg17
I-40
sg18
I-40
sg19
I-40
sg20
I-40
sg21
I-40
sg22
I-40
sg23
I-40
sg24
I-40
sg25
I-40
ssI178
(dp306
g3
I-28
sg4
I-28
sg5
I-28
sg6
I-28
sg7
I-28
sg8
I-28
sg10
I-28
sg11
I-28
sg12
I-28
sg13
I-28
sg14
I-28
sg15
I-28
sg16
I-28
sg17
I-28
sg18
I-28
sg19
I-28
sg20
I-28
sg21
I-28
sg22
I-28
sg23
I-28
sg24
I-28
sg25
I-28
ssI179
(dp307
g49
I62
sg52
I63
sg3
I-33
sg4
I-33
sg54
I64
sg55
I65
sg126
I115
sg5
I-33
sg6
I-33
sg7
I-33
sg8
I-33
sg50
I68
sg10
I-33
sg56
I78
sg59
I70
sg11
I-33
sg12
I-33
sg13
I-33
sg14
I-33
sg15
I-33
sg16
I-33
sg17
I-33
sg57
I73
sg58
I71
sg18
I-33
sg19
I-33
sg20
I-33
sg21
I-33
sg51
I76
sg22
I-33
sg23
I-33
sg24
I-33
sg25
I-33
ssI180
(dp308
g49
I62
sg50
I68
sg51
I76
sg52
I63
sg54
I64
sg55
I65
sg56
I78
sg57
I73
sg58
I71
sg59
I70
sg126
I115
ssI181
(dp309
g3
I-58
sg4
I-58
sg5
I-58
sg6
I-58
sg7
I-58
sg8
I-58
sg10
I-58
sg11
I-58
sg12
I-58
sg13
I-58
sg14
I-58
sg15
I-58
sg16
I-58
sg17
I-58
sg18
I-58
sg19
I-58
sg20
I-58
sg21
I-58
sg22
I-58
sg23
I-58
sg24
I-58
sg25
I-58
ssI182
(dp310
g198
I-63
sg119
I-63
sg120
I-63
sg121
I-63
sg122
I-63
sg123
I-63
sg124
I-63
ssI183
(dp311
g49
I62
sg50
I68
sg51
I76
sg52
I63
sg54
I64
sg55
I65
sg59
I70
sg57
I73
sg58
I71
sg131
I125
ssI184
(dp312
g49
I62
sg50
I68
sg51
I76
sg52
I63
sg54
I64
sg55
I65
sg59
I70
sg57
I73
sg58
I71
sg131
I125
ssI185
(dp313
g49
I62
sg50
I68
sg51
I76
sg52
I63
sg54
I64
sg55
I65
sg59
I70
sg57
I73
sg58
I71
sg131
I125
ssI186
(dp314
S'LPAR'
p315
I235
ssI187
(dp316
S'COLON'
p317
I-86
ssI188
(dp318
g317
I-85
ssI189
(dp319
g317
I-90
ssI190
(dp320
S'LPAR'
p321
I236
ssI191
(dp322
g200
I-81
sg119
I-81
sg120
I-81
sg121
I-81
sg122
I-81
sg123
I-81
sg124
I-81
ssI192
(dp323
g317
I237
ssI193
(dp324
g317
I-84
ssI194
(dp325
g317
I-89
ssI195
(dp326
g141
I241
sg147
I239
ssI196
(dp327
g49
I62
sg50
I68
sg51
I76
sg52
I63
sg54
I64
sg55
I65
sg59
I70
sg57
I73
sg58
I71
sg131
I125
ssI197
(dp328
g163
I-140
sg49
I-140
sg52
I-140
sg3
I-140
sg4
I-140
sg54
I-140
sg55
I-140
sg59
I-140
sg126
I-140
sg128
I-140
sg5
I-140
sg6
I-140
sg7
I-140
sg8
I-140
sg129
I-140
sg50
I-140
sg142
I-140
sg10
I-140
sg56
I-140
sg58
I-140
sg11
I-140
sg12
I-140
sg13
I-140
sg14
I-140
sg143
I-140
sg15
I-140
sg16
I-140
sg144
I-140
sg17
I-140
sg57
I-140
sg18
I-140
sg19
I-140
sg20
I-140
sg21
I-140
sg32
I-140
sg51
I-140
sg22
I-140
sg23
I-140
sg24
I-140
sg154
I-140
sg25
I-140
ssI198
(dp329
g3
I-107
sg4
I-107
sg5
I-107
sg6
I-107
sg7
I-107
sg8
I-107
sg10
I-107
sg11
I-107
sg12
I-107
sg13
I-107
sg14
I-107
sg15
I-107
sg16
I-107
sg17
I-107
sg18
I-107
sg19
I-107
sg20
I-107
sg21
I-107
sg22
I-107
sg23
I-107
sg24
I-107
sg25
I-107
ssI199
(dp330
g228
I-109
sg128
I-109
sg129
I-109
ssI200
(dp331
g49
I62
sg50
I68
sg51
I76
sg52
I63
sg54
I64
sg55
I65
sg56
I78
sg57
I73
sg58
I71
sg59
I70
sg126
I115
ssI201
(dp332
g49
I62
sg50
I68
sg51
I76
sg52
I63
sg54
I64
sg55
I65
sg56
I78
sg57
I73
sg58
I71
sg59
I70
sg126
I115
ssI202
(dp333
g49
I62
sg50
I68
sg51
I76
sg52
I63
sg54
I64
sg55
I65
sg59
I70
sg57
I73
sg58
I71
sS'INDENT'
p334
I246
ssI203
(dp335
S'DEDENT'
p336
I247
sS'COMMA'
p337
I248
ssI204
(dp338
g237
I-142
sg49
I-142
sg52
I-142
sg3
I-142
sg4
I-142
sg54
I-142
sg55
I-142
sg120
I-142
sg5
I-142
sg6
I-142
sg7
I-142
sg141
I-142
sg8
I-142
sg50
I-142
sg142
I-142
sg10
I-142
sg59
I-142
sg58
I-142
sg11
I-142
sg12
I-142
sg13
I-142
sg14
I-142
sg143
I-142
sg15
I-142
sg16
I-142
sg144
I-142
sg17
I-142
sg119
I-142
sg57
I-142
sg121
I-142
sg18
I-142
sg19
I-142
sg20
I-142
sg124
I-142
sg21
I-142
sg51
I-142
sg22
I-142
sg23
I-142
sg24
I-142
sg25
I-142
sg123
I-142
sg122
I-142
sg238
I-142
sg147
I-142
ssI205
(dp339
g49
I62
sg145
I213
sg51
I76
sg52
I63
sg58
I71
sg140
I139
sg54
I64
sg55
I65
sg126
I115
sg57
I73
sg50
I68
sg59
I70
sg56
I78
ssI206
(dp340
g256
I250
ssI207
(dp341
g256
I-138
sg49
I-138
sg145
I-138
sg51
I-138
sg52
I-138
sg58
I-138
sg140
I-138
sg54
I-138
sg55
I-138
sg126
I-138
sg57
I-138
sg50
I-138
sg59
I-138
sg56
I-138
ssI208
(dp342
g256
I-157
sg49
I-157
sg145
I-157
sg51
I-157
sg52
I-157
sg58
I-157
sg140
I-157
sg54
I-157
sg55
I-157
sg126
I-157
sg57
I-157
sg50
I-157
sg59
I-157
sg56
I-157
ssI209
(dp343
S'DEDENT'
p344
I-136
sg49
I62
sg145
I213
sg51
I76
sg52
I63
sg58
I71
sg140
I139
sg54
I64
sg55
I65
sg59
I70
sg126
I115
sg57
I73
sg50
I68
sg56
I78
ssI210
(dp345
g256
I-158
sg49
I-158
sg145
I-158
sg51
I-158
sg52
I-158
sg58
I-158
sg140
I-158
sg54
I-158
sg55
I-158
sg126
I-158
sg57
I-158
sg50
I-158
sg59
I-158
sg56
I-158
ssI211
(dp346
g49
I62
sg145
I213
sg51
I76
sg52
I63
sg58
I71
sg140
I139
sg54
I64
sg55
I65
sg126
I115
sg57
I73
sg50
I68
sg59
I70
sg56
I78
ssI212
(dp347
g256
I-137
sg49
I-137
sg145
I-137
sg51
I-137
sg52
I-137
sg58
I-137
sg140
I-137
sg54
I-137
sg55
I-137
sg126
I-137
sg57
I-137
sg50
I-137
sg59
I-137
sg56
I-137
ssI213
(dp348
g49
I-159
sg145
I-159
sg51
I-159
sg52
I-159
sg58
I-159
sg140
I-159
sg54
I-159
sg55
I-159
sg126
I-159
sg57
I-159
sg50
I-159
sg59
I-159
sg56
I-159
ssI214
(dp349
S'DEDENT'
p350
I254
ssI215
(dp351
g3
I-99
sg4
I-99
sg5
I-99
sg6
I-99
sg7
I-99
sg8
I-99
sg10
I-99
sg11
I-99
sg12
I-99
sg13
I-99
sg14
I-99
sg15
I-99
sg16
I-99
sg17
I-99
sg18
I-99
sg19
I-99
sg20
I-99
sg21
I-99
sg22
I-99
sg23
I-99
sg24
I-99
sg25
I-99
ssI216
(dp352
g163
I-101
sg164
I-101
sg154
I-101
ssI217
(dp353
g49
I62
sg50
I68
sg51
I76
sg52
I63
sg54
I64
sg55
I65
sg56
I78
sg57
I73
sg58
I71
sg59
I70
sg137
I133
ssI218
(dp354
g49
I62
sg50
I68
sg51
I76
sg52
I63
sg54
I64
sg55
I65
sg56
I78
sg57
I73
sg58
I71
sg59
I70
sg126
I115
ssI219
(dp355
g49
I62
sg50
I68
sg51
I76
sg52
I63
sg54
I64
sg55
I65
sg56
I78
sg57
I73
sg58
I71
sg59
I70
sg137
I133
ssI220
(dp356
g49
I62
sg50
I68
sg51
I76
sg52
I63
sg54
I64
sg55
I65
sg56
I78
sg57
I73
sg58
I71
sg59
I70
sg126
I115
ssI221
(dp357
g3
I-91
sg4
I-91
sg5
I-91
sg6
I-91
sg7
I-91
sg8
I-91
sg10
I-91
sg11
I-91
sg12
I-91
sg13
I-91
sg14
I-91
sg15
I-91
sg16
I-91
sg17
I-91
sg18
I-91
sg19
I-91
sg20
I-91
sg21
I-91
sg22
I-91
sg23
I-91
sg24
I-91
sg25
I-91
ssI222
(dp358
g270
I-93
sg174
I-93
sg146
I-93
ssI223
(dp359
g3
I-48
sg4
I-48
sg5
I-48
sg6
I-48
sg7
I-48
sg8
I-48
sg10
I-48
sg11
I-48
sg12
I-48
sg13
I-48
sg14
I-48
sg15
I-48
sg16
I-48
sg17
I-48
sg18
I-48
sg19
I-48
sg20
I-48
sg21
I-48
sg22
I-48
sg23
I-48
sg24
I-48
sg25
I-48
ssI224
(dp360
g139
I-50
sg143
I-50
sg144
I-50
sg142
I-50
ssI225
(dp361
g49
I62
sg50
I68
sg51
I76
sg52
I63
sg54
I64
sg55
I65
sg59
I70
sg57
I73
sg58
I71
sg131
I125
ssI226
(dp362
g49
I62
sg50
I68
sg51
I76
sg52
I63
sg54
I64
sg55
I65
sg56
I78
sg57
I73
sg58
I71
sg59
I70
sg126
I115
ssI227
(dp363
g49
I62
sg50
I68
sg51
I76
sg52
I63
sg54
I64
sg55
I65
sg56
I78
sg57
I73
sg58
I71
sg59
I70
sg126
I115
ssI228
(dp364
g49
I62
sg50
I68
sg51
I76
sg52
I63
sg54
I64
sg55
I65
sg56
I78
sg57
I73
sg58
I71
sg59
I70
sg126
I115
ssI229
(dp365
g152
I-121
sg3
I-121
sg4
I-121
sg5
I-121
sg6
I-121
sg7
I-121
sg8
I-121
sg153
I-121
sg10
I-121
sg11
I-121
sg12
I-121
sg13
I-121
sg14
I-121
sg15
I-121
sg16
I-121
sg17
I-121
sg18
I-121
sg19
I-121
sg20
I-121
sg21
I-121
sg22
I-121
sg23
I-121
sg24
I-121
sg25
I-121
ssI230
(dp366
S'INDENT'
p367
I264
ssI231
(dp368
g49
I62
sg220
I-78
sg51
I76
sg52
I63
sg58
I71
sg54
I64
sg55
I65
sg126
I115
sg57
I73
sg50
I68
sg59
I70
sg56
I78
ssI232
(dp369
g198
I-71
sg119
I-71
sg120
I-71
sg121
I-71
sg122
I-71
sg123
I-71
sg124
I-71
ssI233
(dp370
g198
I-74
sg119
I-74
sg120
I-74
sg121
I-74
sg122
I-74
sg123
I-74
sg124
I-74
ssI234
(dp371
g200
I-72
sg119
I-72
sg120
I-72
sg121
I-72
sg122
I-72
sg123
I-72
sg124
I-72
ssI235
(dp372
g181
I158
ssI236
(dp373
g181
I158
ssI237
(dp374
S'INDENT'
p375
I267
ssI238
(dp376
g237
I-77
sg141
I-77
sg147
I-77
ssI239
(dp377
S'COLON'
p378
I268
ssI240
(dp379
g237
I269
sg141
I241
sg147
I239
ssI241
(dp380
S'COLON'
p381
I271
ssI242
(dp382
g198
I-73
sg119
I-73
sg120
I-73
sg121
I-73
sg122
I-73
sg123
I-73
sg124
I-73
ssI243
(dp383
g228
I-113
sg49
I62
sg50
I68
sg51
I76
sg52
I63
sg54
I64
sg55
I65
sg59
I70
sg126
I115
sg57
I73
sg58
I71
sg128
I-113
sg129
I-113
sg56
I78
ssI244
(dp384
g228
I-114
sg49
I62
sg50
I68
sg51
I76
sg52
I63
sg54
I64
sg55
I65
sg59
I70
sg126
I115
sg57
I73
sg58
I71
sg128
I-114
sg129
I-114
sg56
I78
ssI245
(dp385
g198
I-119
sg49
I62
sg142
I-119
sg3
I-119
sg4
I-119
sg54
I64
sg55
I65
sg59
I70
sg120
I-119
sg5
I-119
sg141
I-119
sg7
I-119
sg6
I-119
sg8
I-119
sg50
I68
sg52
I63
sg10
I-119
sg238
I-119
sg147
I-119
sg11
I-119
sg12
I-119
sg123
I-119
sg14
I-119
sg143
I-119
sg15
I-119
sg58
I71
sg16
I-119
sg144
I-119
sg17
I-119
sg119
I-119
sg57
I73
sg121
I-119
sg18
I-119
sg19
I-119
sg20
I-119
sg124
I-119
sg21
I-119
sg51
I76
sg22
I-119
sg23
I-119
sg24
I-119
sg25
I-119
sg13
I-119
sg122
I-119
ssI246
(dp386
g49
I62
sg50
I68
sg51
I76
sg52
I63
sg54
I64
sg55
I65
sg59
I70
sg57
I73
sg58
I71
ssI247
(dp387
g237
I-118
sg142
I-118
sg3
I-118
sg4
I-118
sg120
I-118
sg5
I-118
sg141
I-118
sg7
I-118
sg6
I-118
sg8
I-118
sg10
I-118
sg147
I-118
sg11
I-118
sg12
I-118
sg123
I-118
sg14
I-118
sg143
I-118
sg15
I-118
sg16
I-118
sg144
I-118
sg17
I-118
sg119
I-118
sg121
I-118
sg18
I-118
sg19
I-118
sg20
I-118
sg124
I-118
sg21
I-118
sg22
I-118
sg23
I-118
sg24
I-118
sg25
I-118
sg13
I-118
sg122
I-118
ssI248
(dp388
g49
I62
sg50
I68
sg51
I76
sg52
I63
sg54
I64
sg55
I65
sg59
I70
sg57
I73
sg58
I71
ssI249
(dp389
g344
I273
ssI250
(dp390
g3
I-128
sg4
I-128
sg5
I-128
sg6
I-128
sg7
I-128
sg8
I-128
sg10
I-128
sg11
I-128
sg12
I-128
sg13
I-128
sg14
I-128
sg15
I-128
sg16
I-128
sg17
I-128
sg18
I-128
sg19
I-128
sg20
I-128
sg21
I-128
sg22
I-128
sg23
I-128
sg24
I-128
sg25
I-128
ssI251
(dp391
g344
I-135
ssI252
(dp392
S'DEDENT'
p393
I275
ssI253
(dp394
g393
I-133
sg49
I-133
sg145
I-133
sg51
I-133
sg52
I-133
sg58
I-133
sg140
I-133
sg54
I-133
sg55
I-133
sg126
I-133
sg57
I-133
sg50
I-133
sg59
I-133
sg56
I-133
ssI254
(dp395
g3
I-127
sg4
I-127
sg5
I-127
sg6
I-127
sg7
I-127
sg8
I-127
sg10
I-127
sg11
I-127
sg12
I-127
sg13
I-127
sg14
I-127
sg15
I-127
sg16
I-127
sg17
I-127
sg18
I-127
sg19
I-127
sg20
I-127
sg21
I-127
sg22
I-127
sg23
I-127
sg24
I-127
sg25
I-127
ssI255
(dp396
g163
I-105
sg164
I-105
sg154
I-105
ssI256
(dp397
g163
I-106
sg49
I62
sg50
I68
sg51
I76
sg52
I63
sg164
I-106
sg59
I70
sg54
I64
sg55
I65
sg154
I-106
sg126
I115
sg57
I73
sg58
I71
sg56
I78
ssI257
(dp398
g270
I-97
sg174
I-97
sg146
I-97
ssI258
(dp399
g270
I-98
sg49
I62
sg50
I68
sg51
I76
sg52
I63
sg174
I-98
sg59
I70
sg54
I64
sg55
I65
sg146
I-98
sg126
I115
sg57
I73
sg58
I71
sg56
I78
ssI259
(dp400
g139
I-57
sg143
I-57
sg144
I-57
sg142
I-57
ssI260
(dp401
g139
I-55
sg143
I-55
sg50
I68
sg51
I76
sg142
I-55
sg52
I63
sg144
I-55
sg54
I64
sg55
I65
sg59
I70
sg56
I78
sg57
I73
sg58
I71
sg126
I115
sg49
I62
ssI261
(dp402
g139
I-56
sg143
I-56
sg50
I68
sg51
I76
sg142
I-56
sg52
I63
sg144
I-56
sg54
I64
sg55
I65
sg59
I70
sg56
I78
sg57
I73
sg58
I71
sg126
I115
sg49
I62
ssI262
(dp403
g152
I276
ssI263
(dp404
g152
I-44
sg304
I277
ssI264
(dp405
g49
I62
sg50
I68
sg51
I76
sg52
I63
sg54
I64
sg55
I65
sg56
I78
sg57
I73
sg58
I71
sg59
I70
sg126
I115
ssI265
(dp406
g281
I279
ssI266
(dp407
S'RPAR'
p408
I280
ssI267
(dp409
g119
I107
sg120
I98
sg121
I108
sg122
I112
sg123
I104
sg124
I109
ssI268
(dp410
g49
I62
sg50
I68
sg51
I76
sg52
I63
sg54
I64
sg55
I65
sg59
I70
sg57
I73
sg58
I71
sg131
I125
ssI269
(dp411
S'DEDENT'
p412
I-75
sg119
I-75
sg120
I-75
sg121
I-75
sg122
I-75
sg123
I-75
sg124
I-75
ssI270
(dp413
g237
I-76
sg141
I-76
sg147
I-76
ssI271
(dp414
g49
I62
sg50
I68
sg51
I76
sg52
I63
sg54
I64
sg55
I65
sg59
I70
sg57
I73
sg58
I71
sg131
I125
ssI272
(dp415
S'DEDENT'
p416
I284
sg337
I248
ssI273
(dp417
g3
I-129
sg4
I-129
sg5
I-129
sg6
I-129
sg7
I-129
sg8
I-129
sg10
I-129
sg11
I-129
sg12
I-129
sg13
I-129
sg14
I-129
sg15
I-129
sg16
I-129
sg17
I-129
sg18
I-129
sg19
I-129
sg20
I-129
sg21
I-129
sg22
I-129
sg23
I-129
sg24
I-129
sg25
I-129
ssI274
(dp418
g256
I-134
sg49
I-134
sg145
I-134
sg51
I-134
sg52
I-134
sg58
I-134
sg140
I-134
sg54
I-134
sg55
I-134
sg126
I-134
sg57
I-134
sg50
I-134
sg59
I-134
sg56
I-134
ssI275
(dp419
g256
I-160
sg49
I-160
sg145
I-160
sg51
I-160
sg52
I-160
sg58
I-160
sg140
I-160
sg54
I-160
sg55
I-160
sg126
I-160
sg57
I-160
sg50
I-160
sg59
I-160
sg56
I-160
ssI276
(dp420
g3
I-41
sg4
I-41
sg5
I-41
sg6
I-41
sg7
I-41
sg8
I-41
sg10
I-41
sg11
I-41
sg12
I-41
sg13
I-41
sg14
I-41
sg15
I-41
sg16
I-41
sg17
I-41
sg18
I-41
sg19
I-41
sg20
I-41
sg21
I-41
sg22
I-41
sg23
I-41
sg24
I-41
sg25
I-41
ssI277
(dp421
g49
I62
sg50
I68
sg51
I76
sg52
I63
sg54
I64
sg55
I65
sg56
I78
sg57
I73
sg58
I71
sg59
I70
sg126
I115
ssI278
(dp422
S'DEDENT'
p423
I286
ssI279
(dp424
g317
I-88
ssI280
(dp425
g317
I-87
ssI281
(dp426
g412
I287
sg119
I107
sg120
I98
sg121
I108
sg122
I112
sg123
I104
sg124
I109
ssI282
(dp427
g237
I-79
sg141
I-79
sg147
I-79
ssI283
(dp428
g237
I-80
sg141
I-80
sg147
I-80
ssI284
(dp429
g237
I-117
sg142
I-117
sg3
I-117
sg4
I-117
sg120
I-117
sg5
I-117
sg141
I-117
sg7
I-117
sg6
I-117
sg8
I-117
sg10
I-117
sg147
I-117
sg11
I-117
sg12
I-117
sg123
I-117
sg14
I-117
sg143
I-117
sg15
I-117
sg16
I-117
sg144
I-117
sg17
I-117
sg119
I-117
sg121
I-117
sg18
I-117
sg19
I-117
sg20
I-117
sg124
I-117
sg21
I-117
sg22
I-117
sg23
I-117
sg24
I-117
sg25
I-117
sg13
I-117
sg122
I-117
ssI285
(dp430
g152
I-43
ssI286
(dp431
g3
I-42
sg4
I-42
sg5
I-42
sg6
I-42
sg7
I-42
sg8
I-42
sg10
I-42
sg11
I-42
sg12
I-42
sg13
I-42
sg14
I-42
sg15
I-42
sg16
I-42
sg17
I-42
sg18
I-42
sg19
I-42
sg20
I-42
sg21
I-42
sg22
I-42
sg23
I-42
sg24
I-42
sg25
I-42
ssI287
(dp432
g200
I-82
sS'ELSE'
p433
I288
sg119
I-82
sg120
I-82
sg121
I-82
sg122
I-82
sg123
I-82
sg124
I-82
ssI288
(dp434
S'COLON'
p435
I289
ssI289
(dp436
S'INDENT'
p437
I290
ssI290
(dp438
g119
I107
sg120
I98
sg121
I108
sg122
I112
sg123
I104
sg124
I109
ssI291
(dp439
g200
I292
sg119
I107
sg120
I98
sg121
I108
sg122
I112
sg123
I104
sg124
I109
ssI292
(dp440
g200
I-83
sg119
I-83
sg120
I-83
sg121
I-83
sg122
I-83
sg123
I-83
sg124
I-83
ss.(dp1
I0
(dp2
S'meta_license_stmt'
p3
I1
sS'library_declaration'
p4
I2
sS'library'
p5
I5
sS'meta_author_email_stmt'
p6
I6
sS'exec_decl'
p7
I4
sS'meta_classifiers_stmt'
p8
I10
sS'data_files'
p9
I12
sS'description_decl'
p10
I15
sS'meta_download_url_stmt'
p11
I41
sS'path_declaration'
p12
I17
sS'extra_sources'
p13
I19
sS'meta_url_stmt'
p14
I9
sS'meta_maintainer_stmt'
p15
I20
sS'empty'
p16
I23
sS'exec'
p17
I28
sS'meta_author_stmt'
p18
I31
sS'stmt'
p19
I32
sS'meta_platforms_stmt'
p20
I34
sS'meta_stmt'
p21
I35
sS'flag'
p22
I36
sS'meta_description_stmt'
p23
I37
sS'meta_hook_file_stmt'
p24
I38
sS'path'
p25
I39
sS'flag_declaration'
p26
I16
sS'data_files_declaration'
p27
I42
sS'stmt_list'
p28
I43
sS'dummy'
p29
I44
sS'meta_version_stmt'
p30
I47
sS'meta_maintainer_email_stmt'
p31
I48
sS'meta_name_stmt'
p32
I49
sS'meta_summary_stmt'
p33
I51
ssI1
(dp34
sI2
(dp35
sI3
(dp36
sI4
(dp37
sI5
(dp38
sI6
(dp39
sI7
(dp40
sI8
(dp41
sI9
(dp42
sI10
(dp43
sI11
(dp44
sI12
(dp45
sI13
(dp46
sI14
(dp47
sI15
(dp48
S'anytoken_no_comma'
p49
I66
sS'literal_no_space'
p50
I75
sS'single_line_newline'
p51
I77
sS'single_line'
p52
I72
sS'single_line_value'
p53
I74
ssI16
(dp54
sI17
(dp55
sI18
(dp56
sI19
(dp57
sI20
(dp58
sI21
(dp59
sI22
(dp60
sI23
(dp61
sI24
(dp62
sI25
(dp63
sI26
(dp64
sI27
(dp65
sI28
(dp66
sI29
(dp67
sI30
(dp68
sI31
(dp69
sI32
(dp70
sI33
(dp71
sI34
(dp72
sI35
(dp73
sI36
(dp74
sI37
(dp75
sI38
(dp76
sI39
(dp77
sI40
(dp78
sI41
(dp79
sI42
(dp80
sI43
(dp81
g3
I1
sg4
I2
sg5
I5
sg6
I6
sg7
I4
sg8
I10
sg9
I12
sg10
I15
sg11
I41
sg12
I17
sg13
I19
sg14
I9
sg15
I20
sg17
I28
sg18
I31
sg19
I92
sg20
I34
sg21
I35
sg22
I36
sg23
I37
sg24
I38
sg25
I39
sg26
I16
sg27
I42
sg29
I44
sg30
I47
sg31
I48
sg32
I49
sg33
I51
ssI44
(dp82
sI45
(dp83
sI46
(dp84
sI47
(dp85
sI48
(dp86
sI49
(dp87
sI50
(dp88
sI51
(dp89
sI52
(dp90
sI53
(dp91
sI54
(dp92
S'packages_stmt'
p93
I100
sS'build_requires_stmt'
p94
I105
sS'conditional_stmt'
p95
I110
sS'extension_decl'
p96
I111
sS'install_requires_stmt'
p97
I101
sS'extension_stmt'
p98
I102
sS'modules_stmt'
p99
I106
sS'library_stmt'
p100
I99
sS'library_stmts'
p101
I103
ssI55
(dp102
g49
I66
sS'literal_no_space'
p103
I113
sS'literal'
p104
I114
sS'anyword'
p105
I116
ssI56
(dp106
S'function'
p107
I117
sS'exec_stmts'
p108
I118
sS'module'
p109
I119
sS'exec_stmt'
p110
I120
ssI57
(dp111
S'anytoken_no_comma'
p112
I124
sS'indented_comma_list'
p113
I128
sS'comma_words'
p114
I123
sS'comma_list'
p115
I127
sS'anyword_comma_list'
p116
I126
ssI58
(dp117
S'version'
p118
I130
ssI59
(dp119
g49
I66
sg103
I113
sg104
I114
sS'anyword'
p120
I131
ssI60
(dp121
g49
I66
sg103
I113
sg104
I114
sS'anyword'
p122
I132
ssI61
(dp123
g49
I66
sg50
I75
sg52
I72
sS'single_line_value'
p124
I134
ssI62
(dp125
sI63
(dp126
sI64
(dp127
sI65
(dp128
sI66
(dp129
sI67
(dp130
g49
I66
sg50
I75
sg52
I136
ssI68
(dp131
sI69
(dp132
sI70
(dp133
sI71
(dp134
sI72
(dp135
g49
I66
sg103
I113
sS'literal'
p136
I138
ssI73
(dp137
sI74
(dp138
S'newline'
p139
I140
ssI75
(dp140
sI76
(dp141
sI77
(dp142
sI78
(dp143
sI79
(dp144
S'flag_stmts'
p145
I142
sS'flag_description'
p146
I143
sS'flag_stmt'
p147
I146
sS'flag_default'
p148
I144
ssI80
(dp149
S'path_stmts'
p150
I153
sS'path_stmt'
p151
I149
sS'path_description'
p152
I151
sS'path_default'
p153
I152
ssI81
(dp154
g49
I66
sg50
I75
sg52
I72
sS'single_line_value'
p155
I154
ssI82
(dp156
g49
I66
sg103
I113
sg104
I114
sS'anyword'
p157
I155
ssI83
(dp158
sI84
(dp159
g49
I66
sg103
I113
sg104
I114
sS'anyword'
p160
I156
ssI85
(dp161
g49
I66
sg50
I75
sg52
I72
sS'single_line_value'
p162
I157
ssI86
(dp163
S'library_name'
p164
I160
sS'word'
p165
I159
ssI87
(dp166
g49
I66
sg103
I113
sg104
I114
sS'anyword'
p167
I161
ssI88
(dp168
S'word'
p169
I162
ssI89
(dp170
g49
I66
sg103
I113
sg104
I114
sS'anyword'
p171
I163
ssI90
(dp172
g49
I66
sg103
I113
sg104
I114
sS'anyword'
p173
I164
ssI91
(dp174
S'data_files_stmts'
p175
I165
sS'data_files_target'
p176
I166
sS'data_files_files'
p177
I167
sS'data_files_stmt'
p178
I170
sS'data_files_srcdir'
p179
I171
ssI92
(dp180
sI93
(dp181
g49
I66
sg103
I113
sg104
I114
sS'anyword'
p182
I173
ssI94
(dp183
sI95
(dp184
g49
I66
sg103
I113
sS'literal'
p185
I175
sS'literal_line'
p186
I176
sS'classifier'
p187
I177
ssI96
(dp188
sI97
(dp189
g49
I66
sg103
I113
sg104
I114
sS'anyword'
p190
I179
ssI98
(dp191
sI99
(dp192
sI100
(dp193
sI101
(dp194
sI102
(dp195
sI103
(dp196
g93
I100
sg94
I105
sg95
I110
sg96
I111
sg97
I101
sg98
I102
sg99
I106
sg100
I182
ssI104
(dp197
sI105
(dp198
sI106
(dp199
sI107
(dp200
sI108
(dp201
sI109
(dp202
S'test'
p203
I192
sS'bool'
p204
I193
sS'os_var'
p205
I188
sS'flag_var'
p206
I187
ssI110
(dp207
sI111
(dp208
sI112
(dp209
sI113
(dp210
sI114
(dp211
sI115
(dp212
sI116
(dp213
g49
I66
sg103
I113
sg104
I197
ssI117
(dp214
sI118
(dp215
g107
I117
sg110
I199
sg109
I119
ssI119
(dp216
sI120
(dp217
sI121
(dp218
sI122
(dp219
sI123
(dp220
sI124
(dp221
sI125
(dp222
g112
I124
sS'comma_words'
p223
I203
sg116
I126
ssI126
(dp224
g112
I204
ssI127
(dp225
sI128
(dp226
sI129
(dp227
sI130
(dp228
sI131
(dp229
g49
I66
sg103
I113
sg104
I197
ssI132
(dp230
g49
I66
sg103
I113
sg104
I197
ssI133
(dp231
g49
I66
sg50
I75
sg52
I136
ssI134
(dp232
sI135
(dp233
sI136
(dp234
g49
I66
sg103
I113
sg136
I138
ssI137
(dp235
S'multi_stmts'
p236
I206
sS'multi_stmt'
p237
I209
sS'indent'
p238
I211
sS'multi_literal'
p239
I207
sS'newline'
p240
I210
sg103
I113
sg49
I66
sS'literal'
p241
I208
sS'indented_block'
p242
I212
ssI138
(dp243
sI139
(dp244
sI140
(dp245
sI141
(dp246
S'multi_stmts'
p247
I214
sg237
I209
sg238
I211
sg239
I207
sg240
I210
sg103
I113
sg49
I66
sg241
I208
sg242
I212
ssI142
(dp248
g146
I143
sg147
I216
sg148
I144
ssI143
(dp249
sI144
(dp250
sI145
(dp251
sI146
(dp252
sI147
(dp253
sI148
(dp254
sI149
(dp255
sI150
(dp256
sI151
(dp257
sI152
(dp258
sI153
(dp259
g151
I222
sg152
I151
sg153
I152
ssI154
(dp260
sI155
(dp261
g49
I66
sg103
I113
sg104
I197
ssI156
(dp262
g49
I66
sg103
I113
sg104
I197
ssI157
(dp263
sI158
(dp264
sI159
(dp265
sI160
(dp266
sI161
(dp267
g49
I66
sg103
I113
sg104
I197
ssI162
(dp268
sI163
(dp269
g49
I66
sg103
I113
sg104
I197
ssI164
(dp270
g49
I66
sg103
I113
sg104
I197
ssI165
(dp271
g177
I167
sg176
I166
sg178
I224
sg179
I171
ssI166
(dp272
sI167
(dp273
sI168
(dp274
sI169
(dp275
sI170
(dp276
sI171
(dp277
sI172
(dp278
sI173
(dp279
g49
I66
sg103
I113
sg104
I197
ssI174
(dp280
sI175
(dp281
g49
I66
sg103
I113
sg185
I175
sS'literal_line'
p282
I229
ssI176
(dp283
sI177
(dp284
sI178
(dp285
sI179
(dp286
g49
I66
sg103
I113
sg104
I197
ssI180
(dp287
g49
I66
sg103
I113
sg104
I114
sS'anyword'
p288
I231
ssI181
(dp289
sI182
(dp290
sI183
(dp291
g112
I124
sg113
I128
sg114
I123
sS'comma_list'
p292
I232
sg116
I126
ssI184
(dp293
g112
I124
sg113
I128
sg114
I123
sS'comma_list'
p294
I233
sg116
I126
ssI185
(dp295
g112
I124
sg113
I128
sg114
I123
sS'comma_list'
p296
I234
sg116
I126
ssI186
(dp297
sI187
(dp298
sI188
(dp299
sI189
(dp300
sI190
(dp301
sI191
(dp302
sI192
(dp303
sI193
(dp304
sI194
(dp305
sI195
(dp306
S'extension_field_stmts'
p307
I240
sS'extension_field_stmt'
p308
I238
ssI196
(dp309
g112
I124
sg113
I128
sg114
I123
sS'comma_list'
p310
I242
sg116
I126
ssI197
(dp311
sI198
(dp312
sI199
(dp313
sI200
(dp314
g49
I66
sg103
I113
sg104
I114
sS'anyword'
p315
I243
ssI201
(dp316
g49
I66
sg103
I113
sg104
I114
sS'anyword'
p317
I244
ssI202
(dp318
g112
I124
sg116
I245
ssI203
(dp319
sI204
(dp320
sI205
(dp321
S'multi_stmts'
p322
I249
sg237
I209
sg238
I211
sg239
I207
sg240
I210
sg103
I113
sg49
I66
sg241
I208
sg242
I212
ssI206
(dp323
sI207
(dp324
sI208
(dp325
sI209
(dp326
S'multi_stmts'
p327
I251
sg237
I209
sg238
I211
sg239
I207
sg240
I210
sg103
I113
sg49
I66
sg241
I208
sg242
I212
ssI210
(dp328
sI211
(dp329
S'multi_stmts'
p330
I252
sg237
I209
sg238
I211
sg239
I207
sg240
I210
sS'indented_block_value'
p331
I253
sg49
I66
sg103
I113
sg241
I208
sg242
I212
ssI212
(dp332
sI213
(dp333
sI214
(dp334
sI215
(dp335
sI216
(dp336
sI217
(dp337
g49
I66
sg50
I75
sg52
I72
sS'single_line_value'
p338
I255
ssI218
(dp339
g49
I66
sg103
I113
sg104
I114
sS'anyword'
p340
I256
ssI219
(dp341
g49
I66
sg50
I75
sg52
I72
sS'single_line_value'
p342
I257
ssI220
(dp343
g49
I66
sg103
I113
sg104
I114
sS'anyword'
p344
I258
ssI221
(dp345
sI222
(dp346
sI223
(dp347
sI224
(dp348
sI225
(dp349
g112
I124
sg113
I128
sg114
I123
sS'comma_list'
p350
I259
sg116
I126
ssI226
(dp351
g49
I66
sg103
I113
sg104
I114
sS'anyword'
p352
I260
ssI227
(dp353
g49
I66
sg103
I113
sg104
I114
sS'anyword'
p354
I261
ssI228
(dp355
g103
I113
sg186
I176
sg49
I66
sg185
I175
sS'classifiers_list'
p356
I262
sS'classifier'
p357
I263
ssI229
(dp358
sI230
(dp359
sI231
(dp360
g49
I66
sg103
I113
sg104
I197
ssI232
(dp361
sI233
(dp362
sI234
(dp363
sI235
(dp364
S'word'
p365
I265
ssI236
(dp366
S'word'
p367
I266
ssI237
(dp368
sI238
(dp369
sI239
(dp370
sI240
(dp371
g308
I270
ssI241
(dp372
sI242
(dp373
sI243
(dp374
g49
I66
sg103
I113
sg104
I197
ssI244
(dp375
g49
I66
sg103
I113
sg104
I197
ssI245
(dp376
g112
I204
ssI246
(dp377
g112
I124
sS'comma_words'
p378
I272
sg116
I126
ssI247
(dp379
sI248
(dp380
g112
I124
sg116
I245
ssI249
(dp381
sI250
(dp382
sI251
(dp383
sI252
(dp384
S'dedent'
p385
I274
ssI253
(dp386
sI254
(dp387
sI255
(dp388
sI256
(dp389
g49
I66
sg103
I113
sg104
I197
ssI257
(dp390
sI258
(dp391
g49
I66
sg103
I113
sg104
I197
ssI259
(dp392
sI260
(dp393
g49
I66
sg103
I113
sg104
I197
ssI261
(dp394
g49
I66
sg103
I113
sg104
I197
ssI262
(dp395
sI263
(dp396
sI264
(dp397
g103
I113
sg186
I176
sg49
I66
sg185
I175
sS'classifiers_list'
p398
I278
sS'classifier'
p399
I263
ssI265
(dp400
sI266
(dp401
sI267
(dp402
g93
I100
sg94
I105
sg95
I110
sg96
I111
sg97
I101
sg98
I102
sg99
I106
sg100
I99
sS'library_stmts'
p403
I281
ssI268
(dp404
g112
I124
sg113
I128
sg114
I123
sS'comma_list'
p405
I282
sg116
I126
ssI269
(dp406
sI270
(dp407
sI271
(dp408
g112
I124
sg113
I128
sg114
I123
sS'comma_list'
p409
I283
sg116
I126
ssI272
(dp410
sI273
(dp411
sI274
(dp412
sI275
(dp413
sI276
(dp414
sI277
(dp415
g103
I113
sg186
I176
sg49
I66
sg185
I175
sS'classifiers_list'
p416
I285
sg357
I263
ssI278
(dp417
sI279
(dp418
sI280
(dp419
sI281
(dp420
g93
I100
sg94
I105
sg95
I110
sg96
I111
sg97
I101
sg98
I102
sg99
I106
sg100
I182
ssI282
(dp421
sI283
(dp422
sI284
(dp423
sI285
(dp424
sI286
(dp425
sI287
(dp426
sI288
(dp427
sI289
(dp428
sI290
(dp429
g93
I100
sg94
I105
sg95
I110
sg96
I111
sg97
I101
sg98
I102
sg99
I106
sg100
I99
sS'library_stmts'
p430
I291
ssI291
(dp431
g93
I100
sg94
I105
sg95
I110
sg96
I111
sg97
I101
sg98
I102
sg99
I106
sg100
I182
ssI292
(dp432
s.(lp1
(S"S' -> stmt_list"
p2
S"S'"
p3
I1
NNNtp4
a(S'stmt_list -> stmt_list stmt'
p5
S'stmt_list'
p6
I2
S'p_stmt_list'
p7
S'/Users/stefan/src/scikits.image/.bentomaker-0.1-cefc4e07a57f178add5006543620a30e/bento/core/parser/parser.py'
p8
I40
tp9
a(S'stmt_list -> stmt'
p10
S'stmt_list'
p11
I1
S'p_stmt_list_term'
p12
S'/Users/stefan/src/scikits.image/.bentomaker-0.1-cefc4e07a57f178add5006543620a30e/bento/core/parser/parser.py'
p13
I46
tp14
a(S'stmt_list -> empty'
p15
S'stmt_list'
p16
I1
S'p_stmt_list_empty'
p17
S'/Users/stefan/src/scikits.image/.bentomaker-0.1-cefc4e07a57f178add5006543620a30e/bento/core/parser/parser.py'
p18
I50
tp19
a(S'stmt_list -> NEWLINE'
p20
S'stmt_list'
p21
I1
S'p_stmt_list_newline'
p22
S'/Users/stefan/src/scikits.image/.bentomaker-0.1-cefc4e07a57f178add5006543620a30e/bento/core/parser/parser.py'
p23
I54
tp24
a(S'stmt -> meta_stmt'
p25
S'stmt'
p26
I1
S'p_stmt'
p27
S'/Users/stefan/src/scikits.image/.bentomaker-0.1-cefc4e07a57f178add5006543620a30e/bento/core/parser/parser.py'
p28
I58
tp29
a(S'stmt -> library'
p30
g26
I1
g27
g28
I59
tp31
a(S'stmt -> exec'
p32
g26
I1
g27
g28
I60
tp33
a(S'stmt -> path'
p34
g26
I1
g27
g28
I61
tp35
a(S'stmt -> flag'
p36
g26
I1
g27
g28
I62
tp37
a(S'stmt -> extra_sources'
p38
g26
I1
g27
g28
I63
tp39
a(S'stmt -> data_files'
p40
g26
I1
g27
g28
I64
tp41
a(S'stmt -> dummy'
p42
g26
I1
g27
g28
I65
tp43
a(S'empty -> <empty>'
p44
S'empty'
p45
I0
S'p_empty'
p46
S'/Users/stefan/src/scikits.image/.bentomaker-0.1-cefc4e07a57f178add5006543620a30e/bento/core/parser/parser.py'
p47
I70
tp48
a(S'meta_stmt -> meta_name_stmt'
p49
S'meta_stmt'
p50
I1
S'p_meta_stmt'
p51
S'/Users/stefan/src/scikits.image/.bentomaker-0.1-cefc4e07a57f178add5006543620a30e/bento/core/parser/parser.py'
p52
I77
tp53
a(S'meta_stmt -> meta_summary_stmt'
p54
g50
I1
g51
g52
I78
tp55
a(S'meta_stmt -> meta_description_stmt'
p56
g50
I1
g51
g52
I79
tp57
a(S'meta_stmt -> meta_version_stmt'
p58
g50
I1
g51
g52
I80
tp59
a(S'meta_stmt -> meta_url_stmt'
p60
g50
I1
g51
g52
I81
tp61
a(S'meta_stmt -> meta_download_url_stmt'
p62
g50
I1
g51
g52
I82
tp63
a(S'meta_stmt -> meta_author_stmt'
p64
g50
I1
g51
g52
I83
tp65
a(S'meta_stmt -> meta_author_email_stmt'
p66
g50
I1
g51
g52
I84
tp67
a(S'meta_stmt -> meta_maintainer_stmt'
p68
g50
I1
g51
g52
I85
tp69
a(S'meta_stmt -> meta_maintainer_email_stmt'
p70
g50
I1
g51
g52
I86
tp71
a(S'meta_stmt -> meta_license_stmt'
p72
g50
I1
g51
g52
I87
tp73
a(S'meta_stmt -> meta_platforms_stmt'
p74
g50
I1
g51
g52
I88
tp75
a(S'meta_stmt -> meta_classifiers_stmt'
p76
g50
I1
g51
g52
I89
tp77
a(S'meta_stmt -> meta_hook_file_stmt'
p78
g50
I1
g51
g52
I90
tp79
a(S'meta_name_stmt -> NAME_ID COLON WORD'
p80
S'meta_name_stmt'
p81
I3
S'p_meta_name_stmt'
p82
S'/Users/stefan/src/scikits.image/.bentomaker-0.1-cefc4e07a57f178add5006543620a30e/bento/core/parser/parser.py'
p83
I95
tp84
a(S'meta_summary_stmt -> SUMMARY_ID COLON single_line_value'
p85
S'meta_summary_stmt'
p86
I3
S'p_meta_summary_stmt'
p87
S'/Users/stefan/src/scikits.image/.bentomaker-0.1-cefc4e07a57f178add5006543620a30e/bento/core/parser/parser.py'
p88
I100
tp89
a(S'meta_url_stmt -> URL_ID COLON anyword'
p90
S'meta_url_stmt'
p91
I3
S'p_meta_url_stmt'
p92
S'/Users/stefan/src/scikits.image/.bentomaker-0.1-cefc4e07a57f178add5006543620a30e/bento/core/parser/parser.py'
p93
I105
tp94
a(S'meta_download_url_stmt -> DOWNLOAD_URL_ID COLON anyword'
p95
S'meta_download_url_stmt'
p96
I3
S'p_meta_download_url_stmt'
p97
S'/Users/stefan/src/scikits.image/.bentomaker-0.1-cefc4e07a57f178add5006543620a30e/bento/core/parser/parser.py'
p98
I110
tp99
a(S'meta_author_stmt -> AUTHOR_ID COLON single_line_value'
p100
S'meta_author_stmt'
p101
I3
S'p_meta_author_stmt'
p102
S'/Users/stefan/src/scikits.image/.bentomaker-0.1-cefc4e07a57f178add5006543620a30e/bento/core/parser/parser.py'
p103
I115
tp104
a(S'meta_author_email_stmt -> AUTHOR_EMAIL_ID COLON anyword'
p105
S'meta_author_email_stmt'
p106
I3
S'p_meta_author_email_stmt'
p107
S'/Users/stefan/src/scikits.image/.bentomaker-0.1-cefc4e07a57f178add5006543620a30e/bento/core/parser/parser.py'
p108
I120
tp109
a(S'meta_maintainer_stmt -> MAINTAINER_ID COLON single_line_value'
p110
S'meta_maintainer_stmt'
p111
I3
S'p_meta_maintainer_stmt'
p112
S'/Users/stefan/src/scikits.image/.bentomaker-0.1-cefc4e07a57f178add5006543620a30e/bento/core/parser/parser.py'
p113
I125
tp114
a(S'meta_maintainer_email_stmt -> MAINTAINER_EMAIL_ID COLON anyword'
p115
S'meta_maintainer_email_stmt'
p116
I3
S'p_meta_maintainer_email_stmt'
p117
S'/Users/stefan/src/scikits.image/.bentomaker-0.1-cefc4e07a57f178add5006543620a30e/bento/core/parser/parser.py'
p118
I130
tp119
a(S'meta_license_stmt -> LICENSE_ID COLON anyword'
p120
S'meta_license_stmt'
p121
I3
S'p_meta_license_stmt'
p122
S'/Users/stefan/src/scikits.image/.bentomaker-0.1-cefc4e07a57f178add5006543620a30e/bento/core/parser/parser.py'
p123
I135
tp124
a(S'meta_platforms_stmt -> PLATFORMS_ID COLON anyword'
p125
S'meta_platforms_stmt'
p126
I3
S'p_meta_platforms_stmt'
p127
S'/Users/stefan/src/scikits.image/.bentomaker-0.1-cefc4e07a57f178add5006543620a30e/bento/core/parser/parser.py'
p128
I140
tp129
a(S'meta_version_stmt -> VERSION_ID COLON version'
p130
S'meta_version_stmt'
p131
I3
S'p_meta_version_stmt'
p132
S'/Users/stefan/src/scikits.image/.bentomaker-0.1-cefc4e07a57f178add5006543620a30e/bento/core/parser/parser.py'
p133
I145
tp134
a(S'meta_hook_file_stmt -> HOOK_FILE_ID COLON anyword'
p135
S'meta_hook_file_stmt'
p136
I3
S'p_meta_hook_file_sstmt'
p137
S'/Users/stefan/src/scikits.image/.bentomaker-0.1-cefc4e07a57f178add5006543620a30e/bento/core/parser/parser.py'
p138
I150
tp139
a(S'meta_classifiers_stmt -> CLASSIFIERS_ID COLON classifier'
p140
S'meta_classifiers_stmt'
p141
I3
S'p_meta_classifiers_stmt_single_line'
p142
S'/Users/stefan/src/scikits.image/.bentomaker-0.1-cefc4e07a57f178add5006543620a30e/bento/core/parser/parser.py'
p143
I155
tp144
a(S'meta_classifiers_stmt -> CLASSIFIERS_ID COLON NEWLINE INDENT classifiers_list DEDENT'
p145
S'meta_classifiers_stmt'
p146
I6
S'p_meta_classifiers_stmt_indent'
p147
S'/Users/stefan/src/scikits.image/.bentomaker-0.1-cefc4e07a57f178add5006543620a30e/bento/core/parser/parser.py'
p148
I159
tp149
a(S'meta_classifiers_stmt -> CLASSIFIERS_ID COLON classifier NEWLINE INDENT classifiers_list DEDENT'
p150
S'meta_classifiers_stmt'
p151
I7
S'p_meta_classifiers_stmt'
p152
S'/Users/stefan/src/scikits.image/.bentomaker-0.1-cefc4e07a57f178add5006543620a30e/bento/core/parser/parser.py'
p153
I165
tp154
a(S'classifiers_list -> classifier NEWLINE classifiers_list'
p155
S'classifiers_list'
p156
I3
S'p_classifiers_list'
p157
S'/Users/stefan/src/scikits.image/.bentomaker-0.1-cefc4e07a57f178add5006543620a30e/bento/core/parser/parser.py'
p158
I171
tp159
a(S'classifiers_list -> classifier'
p160
S'classifiers_list'
p161
I1
S'p_classifiers_list_term'
p162
S'/Users/stefan/src/scikits.image/.bentomaker-0.1-cefc4e07a57f178add5006543620a30e/bento/core/parser/parser.py'
p163
I177
tp164
a(S'classifier -> literal_line'
p165
S'classifier'
p166
I1
S'p_classifier'
p167
S'/Users/stefan/src/scikits.image/.bentomaker-0.1-cefc4e07a57f178add5006543620a30e/bento/core/parser/parser.py'
p168
I182
tp169
a(S'dummy -> AND BACKSLASH'
p170
S'dummy'
p171
I2
S'p_dummy'
p172
S'/Users/stefan/src/scikits.image/.bentomaker-0.1-cefc4e07a57f178add5006543620a30e/bento/core/parser/parser.py'
p173
I188
tp174
a(S'extra_sources -> EXTRA_SOURCES_ID COLON comma_list'
p175
S'extra_sources'
p176
I3
S'p_extra_sources'
p177
S'/Users/stefan/src/scikits.image/.bentomaker-0.1-cefc4e07a57f178add5006543620a30e/bento/core/parser/parser.py'
p178
I195
tp179
a(S'data_files -> data_files_declaration INDENT data_files_stmts DEDENT'
p180
S'data_files'
p181
I4
S'p_data_files'
p182
S'/Users/stefan/src/scikits.image/.bentomaker-0.1-cefc4e07a57f178add5006543620a30e/bento/core/parser/parser.py'
p183
I199
tp184
a(S'data_files_declaration -> DATAFILES_ID COLON word'
p185
S'data_files_declaration'
p186
I3
S'p_data_files_declaration'
p187
S'/Users/stefan/src/scikits.image/.bentomaker-0.1-cefc4e07a57f178add5006543620a30e/bento/core/parser/parser.py'
p188
I205
tp189
a(S'data_files_stmts -> data_files_stmts data_files_stmt'
p190
S'data_files_stmts'
p191
I2
S'p_data_files_stmts'
p192
S'/Users/stefan/src/scikits.image/.bentomaker-0.1-cefc4e07a57f178add5006543620a30e/bento/core/parser/parser.py'
p193
I209
tp194
a(S'data_files_stmts -> data_files_stmt'
p195
S'data_files_stmts'
p196
I1
S'p_data_files_stmts_term'
p197
S'/Users/stefan/src/scikits.image/.bentomaker-0.1-cefc4e07a57f178add5006543620a30e/bento/core/parser/parser.py'
p198
I213
tp199
a(S'data_files_stmt -> data_files_target'
p200
S'data_files_stmt'
p201
I1
S'p_data_files_stmt'
p202
S'/Users/stefan/src/scikits.image/.bentomaker-0.1-cefc4e07a57f178add5006543620a30e/bento/core/parser/parser.py'
p203
I217
tp204
a(S'data_files_stmt -> data_files_files'
p205
g201
I1
g202
g203
I218
tp206
a(S'data_files_stmt -> data_files_srcdir'
p207
g201
I1
g202
g203
I219
tp208
a(S'data_files_target -> TARGET_ID COLON anyword'
p209
S'data_files_target'
p210
I3
S'p_data_files_target'
p211
S'/Users/stefan/src/scikits.image/.bentomaker-0.1-cefc4e07a57f178add5006543620a30e/bento/core/parser/parser.py'
p212
I224
tp213
a(S'data_files_srcdir -> SRCDIR_ID COLON anyword'
p214
S'data_files_srcdir'
p215
I3
S'p_data_files_srcdir'
p216
S'/Users/stefan/src/scikits.image/.bentomaker-0.1-cefc4e07a57f178add5006543620a30e/bento/core/parser/parser.py'
p217
I228
tp218
a(S'data_files_files -> FILES_ID COLON comma_list'
p219
S'data_files_files'
p220
I3
S'p_data_files_files'
p221
S'/Users/stefan/src/scikits.image/.bentomaker-0.1-cefc4e07a57f178add5006543620a30e/bento/core/parser/parser.py'
p222
I232
tp223
a(S'library -> library_declaration INDENT library_stmts DEDENT'
p224
S'library'
p225
I4
S'p_library'
p226
S'/Users/stefan/src/scikits.image/.bentomaker-0.1-cefc4e07a57f178add5006543620a30e/bento/core/parser/parser.py'
p227
I239
tp228
a(S'library -> library_declaration'
p229
S'library'
p230
I1
S'p_library_decl_only'
p231
S'/Users/stefan/src/scikits.image/.bentomaker-0.1-cefc4e07a57f178add5006543620a30e/bento/core/parser/parser.py'
p232
I245
tp233
a(S'library_declaration -> LIBRARY_ID COLON library_name'
p234
S'library_declaration'
p235
I3
S'p_library_declaration'
p236
S'/Users/stefan/src/scikits.image/.bentomaker-0.1-cefc4e07a57f178add5006543620a30e/bento/core/parser/parser.py'
p237
I250
tp238
a(S'library_name -> word'
p239
S'library_name'
p240
I1
S'p_library_name'
p241
S'/Users/stefan/src/scikits.image/.bentomaker-0.1-cefc4e07a57f178add5006543620a30e/bento/core/parser/parser.py'
p242
I254
tp243
a(S'library_name -> <empty>'
p244
g240
I0
g241
g242
I255
tp245
a(S'library_stmts -> library_stmts library_stmt'
p246
S'library_stmts'
p247
I2
S'p_library_stmts'
p248
S'/Users/stefan/src/scikits.image/.bentomaker-0.1-cefc4e07a57f178add5006543620a30e/bento/core/parser/parser.py'
p249
I263
tp250
a(S'library_stmts -> library_stmt'
p251
S'library_stmts'
p252
I1
S'p_library_stmts_term'
p253
S'/Users/stefan/src/scikits.image/.bentomaker-0.1-cefc4e07a57f178add5006543620a30e/bento/core/parser/parser.py'
p254
I270
tp255
a(S'library_stmt -> modules_stmt'
p256
S'library_stmt'
p257
I1
S'p_library_stmt'
p258
S'/Users/stefan/src/scikits.image/.bentomaker-0.1-cefc4e07a57f178add5006543620a30e/bento/core/parser/parser.py'
p259
I275
tp260
a(S'library_stmt -> packages_stmt'
p261
g257
I1
g258
g259
I276
tp262
a(S'library_stmt -> extension_stmt'
p263
g257
I1
g258
g259
I277
tp264
a(S'library_stmt -> build_requires_stmt'
p265
g257
I1
g258
g259
I278
tp266
a(S'library_stmt -> install_requires_stmt'
p267
g257
I1
g258
g259
I279
tp268
a(S'library_stmt -> conditional_stmt'
p269
g257
I1
g258
g259
I280
tp270
a(S'packages_stmt -> PACKAGES_ID COLON comma_list'
p271
S'packages_stmt'
p272
I3
S'p_packages_stmt'
p273
S'/Users/stefan/src/scikits.image/.bentomaker-0.1-cefc4e07a57f178add5006543620a30e/bento/core/parser/parser.py'
p274
I285
tp275
a(S'modules_stmt -> MODULES_ID COLON comma_list'
p276
S'modules_stmt'
p277
I3
S'p_modules_stmt'
p278
S'/Users/stefan/src/scikits.image/.bentomaker-0.1-cefc4e07a57f178add5006543620a30e/bento/core/parser/parser.py'
p279
I289
tp280
a(S'build_requires_stmt -> BUILD_REQUIRES_ID COLON comma_list'
p281
S'build_requires_stmt'
p282
I3
S'p_build_requires_stmt'
p283
S'/Users/stefan/src/scikits.image/.bentomaker-0.1-cefc4e07a57f178add5006543620a30e/bento/core/parser/parser.py'
p284
I293
tp285
a(S'install_requires_stmt -> INSTALL_REQUIRES_ID COLON comma_list'
p286
S'install_requires_stmt'
p287
I3
S'p_install_requires_stmt'
p288
S'/Users/stefan/src/scikits.image/.bentomaker-0.1-cefc4e07a57f178add5006543620a30e/bento/core/parser/parser.py'
p289
I297
tp290
a(S'extension_stmt -> extension_decl INDENT extension_field_stmts DEDENT'
p291
S'extension_stmt'
p292
I4
S'p_extension_stmt_content'
p293
S'/Users/stefan/src/scikits.image/.bentomaker-0.1-cefc4e07a57f178add5006543620a30e/bento/core/parser/parser.py'
p294
I301
tp295
a(S'extension_field_stmts -> extension_field_stmts extension_field_stmt'
p296
S'extension_field_stmts'
p297
I2
S'p_extension_field_stmts'
p298
S'/Users/stefan/src/scikits.image/.bentomaker-0.1-cefc4e07a57f178add5006543620a30e/bento/core/parser/parser.py'
p299
I306
tp300
a(S'extension_field_stmts -> extension_field_stmt'
p301
S'extension_field_stmts'
p302
I1
S'p_extension_field_stmts_term'
p303
S'/Users/stefan/src/scikits.image/.bentomaker-0.1-cefc4e07a57f178add5006543620a30e/bento/core/parser/parser.py'
p304
I312
tp305
a(S'extension_decl -> EXTENSION_ID COLON anyword'
p306
S'extension_decl'
p307
I3
S'p_extension_decl'
p308
S'/Users/stefan/src/scikits.image/.bentomaker-0.1-cefc4e07a57f178add5006543620a30e/bento/core/parser/parser.py'
p309
I316
tp310
a(S'extension_field_stmt -> SOURCES_ID COLON comma_list'
p311
S'extension_field_stmt'
p312
I3
S'p_extension_sources'
p313
S'/Users/stefan/src/scikits.image/.bentomaker-0.1-cefc4e07a57f178add5006543620a30e/bento/core/parser/parser.py'
p314
I320
tp315
a(S'extension_field_stmt -> INCLUDE_DIRS_ID COLON comma_list'
p316
S'extension_field_stmt'
p317
I3
S'p_extension_include_dirs'
p318
S'/Users/stefan/src/scikits.image/.bentomaker-0.1-cefc4e07a57f178add5006543620a30e/bento/core/parser/parser.py'
p319
I324
tp320
a(S'conditional_stmt -> IF error'
p321
S'conditional_stmt'
p322
I2
S'p_conditional_if_error'
p323
S'/Users/stefan/src/scikits.image/.bentomaker-0.1-cefc4e07a57f178add5006543620a30e/bento/core/parser/parser.py'
p324
I331
tp325
a(S'conditional_stmt -> IF test COLON INDENT library_stmts DEDENT'
p326
S'conditional_stmt'
p327
I6
S'p_conditional_if_only'
p328
S'/Users/stefan/src/scikits.image/.bentomaker-0.1-cefc4e07a57f178add5006543620a30e/bento/core/parser/parser.py'
p329
I335
tp330
a(S'conditional_stmt -> IF test COLON INDENT library_stmts DEDENT ELSE COLON INDENT library_stmts DEDENT'
p331
S'conditional_stmt'
p332
I11
S'p_conditional_if_else'
p333
S'/Users/stefan/src/scikits.image/.bentomaker-0.1-cefc4e07a57f178add5006543620a30e/bento/core/parser/parser.py'
p334
I339
tp335
a(S'test -> bool'
p336
S'test'
p337
I1
S'p_test'
p338
S'/Users/stefan/src/scikits.image/.bentomaker-0.1-cefc4e07a57f178add5006543620a30e/bento/core/parser/parser.py'
p339
I345
tp340
a(S'test -> os_var'
p341
g337
I1
g338
g339
I346
tp342
a(S'test -> flag_var'
p343
g337
I1
g338
g339
I347
tp344
a(S'os_var -> OS_OP LPAR word RPAR'
p345
S'os_var'
p346
I4
S'p_os_var'
p347
S'/Users/stefan/src/scikits.image/.bentomaker-0.1-cefc4e07a57f178add5006543620a30e/bento/core/parser/parser.py'
p348
I351
tp349
a(S'flag_var -> FLAG_OP LPAR word RPAR'
p350
S'flag_var'
p351
I4
S'p_flag_var'
p352
S'/Users/stefan/src/scikits.image/.bentomaker-0.1-cefc4e07a57f178add5006543620a30e/bento/core/parser/parser.py'
p353
I355
tp354
a(S'bool -> TRUE'
p355
S'bool'
p356
I1
S'p_cond_expr_true'
p357
S'/Users/stefan/src/scikits.image/.bentomaker-0.1-cefc4e07a57f178add5006543620a30e/bento/core/parser/parser.py'
p358
I359
tp359
a(S'bool -> FALSE'
p360
S'bool'
p361
I1
S'p_cond_expr_false'
p362
S'/Users/stefan/src/scikits.image/.bentomaker-0.1-cefc4e07a57f178add5006543620a30e/bento/core/parser/parser.py'
p363
I363
tp364
a(S'path -> path_declaration INDENT path_stmts DEDENT'
p365
S'path'
p366
I4
S'p_path'
p367
S'/Users/stefan/src/scikits.image/.bentomaker-0.1-cefc4e07a57f178add5006543620a30e/bento/core/parser/parser.py'
p368
I370
tp369
a(S'path_declaration -> PATH_ID COLON anyword'
p370
S'path_declaration'
p371
I3
S'p_path_declaration'
p372
S'/Users/stefan/src/scikits.image/.bentomaker-0.1-cefc4e07a57f178add5006543620a30e/bento/core/parser/parser.py'
p373
I374
tp374
a(S'path_stmts -> path_stmts path_stmt'
p375
S'path_stmts'
p376
I2
S'p_path_stmts'
p377
S'/Users/stefan/src/scikits.image/.bentomaker-0.1-cefc4e07a57f178add5006543620a30e/bento/core/parser/parser.py'
p378
I378
tp379
a(S'path_stmts -> path_stmt'
p380
S'path_stmts'
p381
I1
S'p_path_stmts_term'
p382
S'/Users/stefan/src/scikits.image/.bentomaker-0.1-cefc4e07a57f178add5006543620a30e/bento/core/parser/parser.py'
p383
I382
tp384
a(S'path_stmt -> path_description'
p385
S'path_stmt'
p386
I1
S'p_path_stmt'
p387
S'/Users/stefan/src/scikits.image/.bentomaker-0.1-cefc4e07a57f178add5006543620a30e/bento/core/parser/parser.py'
p388
I386
tp389
a(S'path_stmt -> path_default'
p390
g386
I1
g387
g388
I387
tp391
a(S'path_description -> DESCRIPTION_ID COLON single_line_value'
p392
S'path_description'
p393
I3
S'p_path_description'
p394
S'/Users/stefan/src/scikits.image/.bentomaker-0.1-cefc4e07a57f178add5006543620a30e/bento/core/parser/parser.py'
p395
I391
tp396
a(S'path_default -> DEFAULT_ID COLON anyword'
p397
S'path_default'
p398
I3
S'p_path_default'
p399
S'/Users/stefan/src/scikits.image/.bentomaker-0.1-cefc4e07a57f178add5006543620a30e/bento/core/parser/parser.py'
p400
I396
tp401
a(S'flag -> flag_declaration INDENT flag_stmts DEDENT'
p402
S'flag'
p403
I4
S'p_flag'
p404
S'/Users/stefan/src/scikits.image/.bentomaker-0.1-cefc4e07a57f178add5006543620a30e/bento/core/parser/parser.py'
p405
I403
tp406
a(S'flag_declaration -> FLAG_ID COLON anyword'
p407
S'flag_declaration'
p408
I3
S'p_flag_declaration'
p409
S'/Users/stefan/src/scikits.image/.bentomaker-0.1-cefc4e07a57f178add5006543620a30e/bento/core/parser/parser.py'
p410
I407
tp411
a(S'flag_stmts -> flag_stmts flag_stmt'
p412
S'flag_stmts'
p413
I2
S'p_flag_stmts'
p414
S'/Users/stefan/src/scikits.image/.bentomaker-0.1-cefc4e07a57f178add5006543620a30e/bento/core/parser/parser.py'
p415
I411
tp416
a(S'flag_stmts -> flag_stmt'
p417
S'flag_stmts'
p418
I1
S'p_flag_stmts_term'
p419
S'/Users/stefan/src/scikits.image/.bentomaker-0.1-cefc4e07a57f178add5006543620a30e/bento/core/parser/parser.py'
p420
I415
tp421
a(S'flag_stmt -> flag_description'
p422
S'flag_stmt'
p423
I1
S'p_flag_stmt'
p424
S'/Users/stefan/src/scikits.image/.bentomaker-0.1-cefc4e07a57f178add5006543620a30e/bento/core/parser/parser.py'
p425
I419
tp426
a(S'flag_stmt -> flag_default'
p427
g423
I1
g424
g425
I420
tp428
a(S'flag_description -> DESCRIPTION_ID COLON single_line_value'
p429
S'flag_description'
p430
I3
S'p_flag_description'
p431
S'/Users/stefan/src/scikits.image/.bentomaker-0.1-cefc4e07a57f178add5006543620a30e/bento/core/parser/parser.py'
p432
I424
tp433
a(S'flag_default -> DEFAULT_ID COLON anyword'
p434
S'flag_default'
p435
I3
S'p_flag_default'
p436
S'/Users/stefan/src/scikits.image/.bentomaker-0.1-cefc4e07a57f178add5006543620a30e/bento/core/parser/parser.py'
p437
I429
tp438
a(S'exec -> exec_decl INDENT exec_stmts DEDENT'
p439
S'exec'
p440
I4
S'p_executable'
p441
S'/Users/stefan/src/scikits.image/.bentomaker-0.1-cefc4e07a57f178add5006543620a30e/bento/core/parser/parser.py'
p442
I436
tp443
a(S'exec_decl -> EXECUTABLE_ID COLON anyword'
p444
S'exec_decl'
p445
I3
S'p_exec_declaration'
p446
S'/Users/stefan/src/scikits.image/.bentomaker-0.1-cefc4e07a57f178add5006543620a30e/bento/core/parser/parser.py'
p447
I440
tp448
a(S'exec_stmts -> exec_stmts exec_stmt'
p449
S'exec_stmts'
p450
I2
S'p_exec_stmts'
p451
S'/Users/stefan/src/scikits.image/.bentomaker-0.1-cefc4e07a57f178add5006543620a30e/bento/core/parser/parser.py'
p452
I444
tp453
a(S'exec_stmts -> exec_stmt'
p454
S'exec_stmts'
p455
I1
S'p_exec_stmts_term'
p456
S'/Users/stefan/src/scikits.image/.bentomaker-0.1-cefc4e07a57f178add5006543620a30e/bento/core/parser/parser.py'
p457
I448
tp458
a(S'exec_stmt -> function'
p459
S'exec_stmt'
p460
I1
S'p_exec_stmt'
p461
S'/Users/stefan/src/scikits.image/.bentomaker-0.1-cefc4e07a57f178add5006543620a30e/bento/core/parser/parser.py'
p462
I452
tp463
a(S'exec_stmt -> module'
p464
g460
I1
g461
g462
I453
tp465
a(S'module -> MODULE_ID COLON anyword'
p466
S'module'
p467
I3
S'p_exec_module'
p468
S'/Users/stefan/src/scikits.image/.bentomaker-0.1-cefc4e07a57f178add5006543620a30e/bento/core/parser/parser.py'
p469
I457
tp470
a(S'function -> FUNCTION_ID COLON anyword'
p471
S'function'
p472
I3
S'p_exec_function'
p473
S'/Users/stefan/src/scikits.image/.bentomaker-0.1-cefc4e07a57f178add5006543620a30e/bento/core/parser/parser.py'
p474
I461
tp475
a(S'comma_list -> indented_comma_list'
p476
S'comma_list'
p477
I1
S'p_comma_list_indented'
p478
S'/Users/stefan/src/scikits.image/.bentomaker-0.1-cefc4e07a57f178add5006543620a30e/bento/core/parser/parser.py'
p479
I469
tp480
a(S'comma_list -> comma_words'
p481
S'comma_list'
p482
I1
S'p_comma_list'
p483
S'/Users/stefan/src/scikits.image/.bentomaker-0.1-cefc4e07a57f178add5006543620a30e/bento/core/parser/parser.py'
p484
I474
tp485
a(S'indented_comma_list -> comma_words COMMA INDENT comma_words DEDENT'
p486
S'indented_comma_list'
p487
I5
S'p_indented_comma_list'
p488
S'/Users/stefan/src/scikits.image/.bentomaker-0.1-cefc4e07a57f178add5006543620a30e/bento/core/parser/parser.py'
p489
I479
tp490
a(S'indented_comma_list -> INDENT comma_words DEDENT'
p491
S'indented_comma_list'
p492
I3
S'p_indented_comma_list_term'
p493
S'/Users/stefan/src/scikits.image/.bentomaker-0.1-cefc4e07a57f178add5006543620a30e/bento/core/parser/parser.py'
p494
I485
tp495
a(S'comma_words -> comma_words COMMA anyword_comma_list'
p496
S'comma_words'
p497
I3
S'p_comma_words'
p498
S'/Users/stefan/src/scikits.image/.bentomaker-0.1-cefc4e07a57f178add5006543620a30e/bento/core/parser/parser.py'
p499
I490
tp500
a(S'comma_words -> anyword_comma_list'
p501
S'comma_words'
p502
I1
S'p_comma_words_term'
p503
S'/Users/stefan/src/scikits.image/.bentomaker-0.1-cefc4e07a57f178add5006543620a30e/bento/core/parser/parser.py'
p504
I496
tp505
a(S'literal_line -> literal literal_line'
p506
S'literal_line'
p507
I2
S'p_literal_line'
p508
S'/Users/stefan/src/scikits.image/.bentomaker-0.1-cefc4e07a57f178add5006543620a30e/bento/core/parser/parser.py'
p509
I503
tp510
a(S'literal_line -> literal'
p511
S'literal_line'
p512
I1
S'p_literal_line_term'
p513
S'/Users/stefan/src/scikits.image/.bentomaker-0.1-cefc4e07a57f178add5006543620a30e/bento/core/parser/parser.py'
p514
I508
tp515
a(S'single_line_value -> WS single_line'
p516
S'single_line_value'
p517
I2
S'p_single_line'
p518
S'/Users/stefan/src/scikits.image/.bentomaker-0.1-cefc4e07a57f178add5006543620a30e/bento/core/parser/parser.py'
p519
I512
tp520
a(S'single_line_value -> single_line'
p521
S'single_line_value'
p522
I1
S'p_single_line_no_space'
p523
S'/Users/stefan/src/scikits.image/.bentomaker-0.1-cefc4e07a57f178add5006543620a30e/bento/core/parser/parser.py'
p524
I516
tp525
a(S'single_line -> single_line literal'
p526
S'single_line'
p527
I2
S'p_single_line_string'
p528
S'/Users/stefan/src/scikits.image/.bentomaker-0.1-cefc4e07a57f178add5006543620a30e/bento/core/parser/parser.py'
p529
I520
tp530
a(S'single_line -> literal_no_space'
p531
S'single_line'
p532
I1
S'p_single_line_string_term'
p533
S'/Users/stefan/src/scikits.image/.bentomaker-0.1-cefc4e07a57f178add5006543620a30e/bento/core/parser/parser.py'
p534
I524
tp535
a(S'meta_description_stmt -> description_decl single_line_newline INDENT multi_stmts DEDENT'
p536
S'meta_description_stmt'
p537
I5
S'p_meta_description_stmt_start_same_line'
p538
S'/Users/stefan/src/scikits.image/.bentomaker-0.1-cefc4e07a57f178add5006543620a30e/bento/core/parser/parser.py'
p539
I528
tp540
a(S'meta_description_stmt -> description_decl NEWLINE INDENT multi_stmts DEDENT'
p541
S'meta_description_stmt'
p542
I5
S'p_meta_description_stmt_indented_block'
p543
S'/Users/stefan/src/scikits.image/.bentomaker-0.1-cefc4e07a57f178add5006543620a30e/bento/core/parser/parser.py'
p544
I534
tp545
a(S'meta_description_stmt -> description_decl WS NEWLINE INDENT multi_stmts DEDENT'
p546
S'meta_description_stmt'
p547
I6
S'p_meta_description_stmt_indented_block2'
p548
S'/Users/stefan/src/scikits.image/.bentomaker-0.1-cefc4e07a57f178add5006543620a30e/bento/core/parser/parser.py'
p549
I540
tp550
a(S'meta_description_stmt -> description_decl single_line_value'
p551
S'meta_description_stmt'
p552
I2
S'p_meta_description_stmt_single'
p553
S'/Users/stefan/src/scikits.image/.bentomaker-0.1-cefc4e07a57f178add5006543620a30e/bento/core/parser/parser.py'
p554
I546
tp555
a(S'single_line_newline -> single_line_value newline'
p556
S'single_line_newline'
p557
I2
S'p_single_line_newline'
p558
S'/Users/stefan/src/scikits.image/.bentomaker-0.1-cefc4e07a57f178add5006543620a30e/bento/core/parser/parser.py'
p559
I551
tp560
a(S'description_decl -> DESCRIPTION_ID COLON'
p561
S'description_decl'
p562
I2
S'p_description_decl'
p563
S'/Users/stefan/src/scikits.image/.bentomaker-0.1-cefc4e07a57f178add5006543620a30e/bento/core/parser/parser.py'
p564
I556
tp565
a(S'indented_block -> indent indented_block_value'
p566
S'indented_block'
p567
I2
S'p_indented_block'
p568
S'/Users/stefan/src/scikits.image/.bentomaker-0.1-cefc4e07a57f178add5006543620a30e/bento/core/parser/parser.py'
p569
I560
tp570
a(S'indented_block_value -> multi_stmts dedent'
p571
S'indented_block_value'
p572
I2
S'p_indented_block_value'
p573
S'/Users/stefan/src/scikits.image/.bentomaker-0.1-cefc4e07a57f178add5006543620a30e/bento/core/parser/parser.py'
p574
I564
tp575
a(S'multi_stmts -> multi_stmt multi_stmts'
p576
S'multi_stmts'
p577
I2
S'p_multi_stmts'
p578
S'/Users/stefan/src/scikits.image/.bentomaker-0.1-cefc4e07a57f178add5006543620a30e/bento/core/parser/parser.py'
p579
I568
tp580
a(S'multi_stmts -> multi_stmt'
p581
S'multi_stmts'
p582
I1
S'p_multi_stmts_term'
p583
S'/Users/stefan/src/scikits.image/.bentomaker-0.1-cefc4e07a57f178add5006543620a30e/bento/core/parser/parser.py'
p584
I572
tp585
a(S'multi_stmt -> indented_block'
p586
S'multi_stmt'
p587
I1
S'p_multi_stmt_ind_block'
p588
S'/Users/stefan/src/scikits.image/.bentomaker-0.1-cefc4e07a57f178add5006543620a30e/bento/core/parser/parser.py'
p589
I576
tp590
a(S'multi_stmt -> multi_literal'
p591
S'multi_stmt'
p592
I1
S'p_multi_stmt_term'
p593
S'/Users/stefan/src/scikits.image/.bentomaker-0.1-cefc4e07a57f178add5006543620a30e/bento/core/parser/parser.py'
p594
I580
tp595
a(S'newline -> NEWLINE'
p596
S'newline'
p597
I1
S'p_newline'
p598
S'/Users/stefan/src/scikits.image/.bentomaker-0.1-cefc4e07a57f178add5006543620a30e/bento/core/parser/parser.py'
p599
I584
tp600
a(S'anyword -> anyword literal'
p601
S'anyword'
p602
I2
S'p_anyword'
p603
S'/Users/stefan/src/scikits.image/.bentomaker-0.1-cefc4e07a57f178add5006543620a30e/bento/core/parser/parser.py'
p604
I589
tp605
a(S'anyword -> literal'
p606
S'anyword'
p607
I1
S'p_anyword_term'
p608
S'/Users/stefan/src/scikits.image/.bentomaker-0.1-cefc4e07a57f178add5006543620a30e/bento/core/parser/parser.py'
p609
I593
tp610
a(S'anyword_comma_list -> anyword_comma_list anytoken_no_comma'
p611
S'anyword_comma_list'
p612
I2
S'p_anyword_comma_list'
p613
S'/Users/stefan/src/scikits.image/.bentomaker-0.1-cefc4e07a57f178add5006543620a30e/bento/core/parser/parser.py'
p614
I597
tp615
a(S'anyword_comma_list -> anytoken_no_comma'
p616
S'anyword_comma_list'
p617
I1
S'p_anyword_comma_list_term'
p618
S'/Users/stefan/src/scikits.image/.bentomaker-0.1-cefc4e07a57f178add5006543620a30e/bento/core/parser/parser.py'
p619
I601
tp620
a(S'anytoken_no_comma -> WORD'
p621
S'anytoken_no_comma'
p622
I1
S'p_anytoken_no_comma'
p623
S'/Users/stefan/src/scikits.image/.bentomaker-0.1-cefc4e07a57f178add5006543620a30e/bento/core/parser/parser.py'
p624
I606
tp625
a(S'anytoken_no_comma -> COLON'
p626
g622
I1
g623
g624
I607
tp627
a(S'anytoken_no_comma -> LPAR'
p628
g622
I1
g623
g624
I608
tp629
a(S'anytoken_no_comma -> RPAR'
p630
g622
I1
g623
g624
I609
tp631
a(S'anytoken_no_comma -> LESS'
p632
g622
I1
g623
g624
I610
tp633
a(S'anytoken_no_comma -> SLASH'
p634
g622
I1
g623
g624
I611
tp635
a(S'anytoken_no_comma -> SHARP'
p636
g622
I1
g623
g624
I612
tp637
a(S'anytoken_no_comma -> EQUAL'
p638
g622
I1
g623
g624
I613
tp639
a(S'anytoken_no_comma -> GREATER'
p640
g622
I1
g623
g624
I614
tp641
a(S'literal_no_space -> anytoken_no_comma'
p642
S'literal_no_space'
p643
I1
S'p_literal_no_space'
p644
S'/Users/stefan/src/scikits.image/.bentomaker-0.1-cefc4e07a57f178add5006543620a30e/bento/core/parser/parser.py'
p645
I619
tp646
a(S'literal_no_space -> COMMA'
p647
S'literal_no_space'
p648
I1
S'p_literal_no_space_term'
p649
S'/Users/stefan/src/scikits.image/.bentomaker-0.1-cefc4e07a57f178add5006543620a30e/bento/core/parser/parser.py'
p650
I624
tp651
a(S'literal -> literal_no_space'
p652
S'literal'
p653
I1
S'p_literal'
p654
S'/Users/stefan/src/scikits.image/.bentomaker-0.1-cefc4e07a57f178add5006543620a30e/bento/core/parser/parser.py'
p655
I629
tp656
a(S'literal -> WS'
p657
S'literal'
p658
I1
S'p_literal_term'
p659
S'/Users/stefan/src/scikits.image/.bentomaker-0.1-cefc4e07a57f178add5006543620a30e/bento/core/parser/parser.py'
p660
I634
tp661
a(S'multi_literal -> literal'
p662
S'multi_literal'
p663
I1
S'p_multi_literal'
p664
S'/Users/stefan/src/scikits.image/.bentomaker-0.1-cefc4e07a57f178add5006543620a30e/bento/core/parser/parser.py'
p665
I639
tp666
a(S'multi_literal -> newline'
p667
S'multi_literal'
p668
I1
S'p_multi_literal2'
p669
S'/Users/stefan/src/scikits.image/.bentomaker-0.1-cefc4e07a57f178add5006543620a30e/bento/core/parser/parser.py'
p670
I644
tp671
a(S'indent -> INDENT'
p672
S'indent'
p673
I1
S'p_indent'
p674
S'/Users/stefan/src/scikits.image/.bentomaker-0.1-cefc4e07a57f178add5006543620a30e/bento/core/parser/parser.py'
p675
I649
tp676
a(S'dedent -> DEDENT'
p677
S'dedent'
p678
I1
S'p_dedent'
p679
S'/Users/stefan/src/scikits.image/.bentomaker-0.1-cefc4e07a57f178add5006543620a30e/bento/core/parser/parser.py'
p680
I654
tp681
a(S'word -> WORD'
p682
S'word'
p683
I1
S'p_word'
p684
S'/Users/stefan/src/scikits.image/.bentomaker-0.1-cefc4e07a57f178add5006543620a30e/bento/core/parser/parser.py'
p685
I659
tp686
a(S'version -> WORD'
p687
S'version'
p688
I1
S'p_version'
p689
S'/Users/stefan/src/scikits.image/.bentomaker-0.1-cefc4e07a57f178add5006543620a30e/bento/core/parser/parser.py'
p690
I663
tp691
a.